ccollections
defaultdict
p0
(tRp1
S'23200'
p2
(lp3
S'frame23200_real_B.png'
p4
aS'frame23200_fake_A.png'
p5
asS'102582'
p6
(lp7
S'102582_real_B.png'
p8
aS'102582_fake_A.png'
p9
asS'100032'
p10
(lp11
S'100032_real_B.png'
p12
aS'100032_fake_A.png'
p13
asS'102109'
p14
(lp15
S'102109_real_B.png'
p16
aS'102109_fake_A.png'
p17
asS'101486'
p18
(lp19
S'101486_real_B.png'
p20
aS'101486_fake_A.png'
p21
asS'101762'
p22
(lp23
S'101762_real_B.png'
p24
aS'101762_fake_A.png'
p25
asS'100579'
p26
(lp27
S'100579_real_B.png'
p28
aS'100579_fake_A.png'
p29
asS'15680'
p30
(lp31
S'frame15680_real_B.png'
p32
aS'frame15680_fake_A.png'
p33
asS'20280'
p34
(lp35
S'frame20280_real_B.png'
p36
aS'frame20280_fake_A.png'
p37
asS'101565'
p38
(lp39
S'101565_real_B.png'
p40
aS'101565_fake_A.png'
p41
asS'100778'
p42
(lp43
S'100778_real_B.png'
p44
aS'100778_fake_A.png'
p45
asS'101403'
p46
(lp47
S'101403_real_B.png'
p48
aS'101403_fake_A.png'
p49
asS'102591'
p50
(lp51
S'102591_real_B.png'
p52
aS'102591_fake_A.png'
p53
asS'102355'
p54
(lp55
S'102355_real_B.png'
p56
aS'102355_fake_A.png'
p57
asS'100096'
p58
(lp59
S'100096_real_B.png'
p60
aS'100096_fake_A.png'
p61
asS'101880'
p62
(lp63
S'101880_real_B.png'
p64
aS'101880_fake_A.png'
p65
asS'100780'
p66
(lp67
S'100780_real_B.png'
p68
aS'100780_fake_A.png'
p69
asS'101041'
p70
(lp71
S'101041_real_B.png'
p72
aS'101041_fake_A.png'
p73
asS'100803'
p74
(lp75
S'100803_real_B.png'
p76
aS'100803_fake_A.png'
p77
asS'100053'
p78
(lp79
S'100053_real_B.png'
p80
aS'100053_fake_A.png'
p81
asS'100789'
p82
(lp83
S'100789_real_B.png'
p84
aS'100789_fake_A.png'
p85
asS'28720'
p86
(lp87
S'frame28720_real_B.png'
p88
aS'frame28720_fake_A.png'
p89
asS'100065'
p90
(lp91
S'100065_real_B.png'
p92
aS'100065_fake_A.png'
p93
asS'102260'
p94
(lp95
S'102260_real_B.png'
p96
aS'102260_fake_A.png'
p97
asS'12380'
p98
(lp99
S'frame12380_real_B.png'
p100
aS'frame12380_fake_A.png'
p101
asS'102213'
p102
(lp103
S'102213_real_B.png'
p104
aS'102213_fake_A.png'
p105
asS'101418'
p106
(lp107
S'101418_real_B.png'
p108
aS'101418_fake_A.png'
p109
asS'101314'
p110
(lp111
S'101314_real_B.png'
p112
aS'101314_fake_A.png'
p113
asS'100661'
p114
(lp115
S'100661_real_B.png'
p116
aS'100661_fake_A.png'
p117
asS'100660'
p118
(lp119
S'100660_real_B.png'
p120
aS'100660_fake_A.png'
p121
asS'101786'
p122
(lp123
S'101786_real_B.png'
p124
aS'101786_fake_A.png'
p125
asS'101244'
p126
(lp127
S'101244_real_B.png'
p128
aS'101244_fake_A.png'
p129
asS'102329'
p130
(lp131
S'102329_real_B.png'
p132
aS'102329_fake_A.png'
p133
asS'101951'
p134
(lp135
S'101951_real_B.png'
p136
aS'101951_fake_A.png'
p137
asS'101952'
p138
(lp139
S'101952_real_B.png'
p140
aS'101952_fake_A.png'
p141
asS'101953'
p142
(lp143
S'101953_real_B.png'
p144
aS'101953_fake_A.png'
p145
asS'102288'
p146
(lp147
S'102288_real_B.png'
p148
aS'102288_fake_A.png'
p149
asS'100505'
p150
(lp151
S'100505_real_B.png'
p152
aS'100505_fake_A.png'
p153
asS'100558'
p154
(lp155
S'100558_real_B.png'
p156
aS'100558_fake_A.png'
p157
asS'102552'
p158
(lp159
S'102552_real_B.png'
p160
aS'102552_fake_A.png'
p161
asS'100415'
p162
(lp163
S'100415_real_B.png'
p164
aS'100415_fake_A.png'
p165
asS'102264'
p166
(lp167
S'102264_real_B.png'
p168
aS'102264_fake_A.png'
p169
asS'101256'
p170
(lp171
S'101256_real_B.png'
p172
aS'101256_fake_A.png'
p173
asS'101158'
p174
(lp175
S'101158_real_B.png'
p176
aS'101158_fake_A.png'
p177
asS'100591'
p178
(lp179
S'100591_real_B.png'
p180
aS'100591_fake_A.png'
p181
asS'101154'
p182
(lp183
S'101154_real_B.png'
p184
aS'101154_fake_A.png'
p185
asS'101383'
p186
(lp187
S'101383_real_B.png'
p188
aS'101383_fake_A.png'
p189
asS'100719'
p190
(lp191
S'100719_real_B.png'
p192
aS'100719_fake_A.png'
p193
asS'100014'
p194
(lp195
S'100014_real_B.png'
p196
aS'100014_fake_A.png'
p197
asS'100507'
p198
(lp199
S'100507_rec_B.png'
p200
aS'100507_fake_A.png'
p201
asS'100657'
p202
(lp203
S'100657_real_B.png'
p204
aS'100657_fake_A.png'
p205
asS'102214'
p206
(lp207
S'102214_real_B.png'
p208
aS'102214_fake_A.png'
p209
asS'102215'
p210
(lp211
S'102215_real_B.png'
p212
aS'102215_fake_A.png'
p213
asS'101308'
p214
(lp215
S'101308_real_B.png'
p216
aS'101308_fake_A.png'
p217
asS'100717'
p218
(lp219
S'100717_real_B.png'
p220
aS'100717_fake_A.png'
p221
asS'100844'
p222
(lp223
S'100844_real_B.png'
p224
aS'100844_fake_A.png'
p225
asS'102037'
p226
(lp227
S'102037_real_B.png'
p228
aS'102037_fake_A.png'
p229
asS'102139'
p230
(lp231
S'102139_real_B.png'
p232
aS'102139_fake_A.png'
p233
asS'102138'
p234
(lp235
S'102138_real_B.png'
p236
aS'102138_fake_A.png'
p237
asS'102330'
p238
(lp239
S'102330_real_B.png'
p240
aS'102330_fake_A.png'
p241
asS'102334'
p242
(lp243
S'102334_real_B.png'
p244
aS'102334_fake_A.png'
p245
asS'100409'
p246
(lp247
S'100409_real_B.png'
p248
aS'100409_fake_A.png'
p249
asS'101732'
p250
(lp251
S'101732_real_B.png'
p252
aS'101732_fake_A.png'
p253
asS'100899'
p254
(lp255
S'100899_real_B.png'
p256
aS'100899_fake_A.png'
p257
asS'100089'
p258
(lp259
S'100089_real_B.png'
p260
aS'100089_fake_A.png'
p261
asS'100721'
p262
(lp263
S'100721_rec_B.png'
p264
aS'100721_fake_A.png'
p265
asS'100723'
p266
(lp267
S'100723_real_B.png'
p268
aS'100723_fake_A.png'
p269
asS'101140'
p270
(lp271
S'101140_real_B.png'
p272
aS'101140_fake_A.png'
p273
asS'101147'
p274
(lp275
S'101147_real_B.png'
p276
aS'101147_fake_A.png'
p277
asS'100689'
p278
(lp279
S'100689_real_B.png'
p280
aS'100689_fake_A.png'
p281
asS'102449'
p282
(lp283
S'102449_real_B.png'
p284
aS'102449_fake_A.png'
p285
asS'100561'
p286
(lp287
S'100561_real_B.png'
p288
aS'100561_fake_A.png'
p289
asS'101336'
p290
(lp291
S'101336_real_B.png'
p292
aS'101336_fake_A.png'
p293
asS'100647'
p294
(lp295
S'100647_real_B.png'
p296
aS'100647_fake_A.png'
p297
asS'100646'
p298
(lp299
S'100646_real_B.png'
p300
aS'100646_fake_A.png'
p301
asS'100860'
p302
(lp303
S'100860_real_B.png'
p304
aS'100860_fake_A.png'
p305
asS'100806'
p306
(lp307
S'100806_real_B.png'
p308
aS'100806_fake_A.png'
p309
asS'102144'
p310
(lp311
S'102144_real_B.png'
p312
aS'102144_fake_A.png'
p313
asS'100885'
p314
(lp315
S'100885_real_B.png'
p316
aS'100885_fake_A.png'
p317
asS'101937'
p318
(lp319
S'101937_real_B.png'
p320
aS'101937_fake_A.png'
p321
asS'101837'
p322
(lp323
S'101837_real_B.png'
p324
aS'101837_fake_A.png'
p325
asS'100889'
p326
(lp327
S'100889_real_B.png'
p328
aS'100889_fake_A.png'
p329
asS'101831'
p330
(lp331
S'101831_real_B.png'
p332
aS'101831_fake_A.png'
p333
asS'101830'
p334
(lp335
S'101830_real_B.png'
p336
aS'101830_fake_A.png'
p337
asS'101237'
p338
(lp339
S'101237_real_B.png'
p340
aS'101237_fake_A.png'
p341
asS'101239'
p342
(lp343
S'101239_real_B.png'
p344
aS'101239_fake_A.png'
p345
asS'100247'
p346
(lp347
S'100247_rec_B.png'
p348
aS'100247_fake_A.png'
p349
asS'13440'
p350
(lp351
S'frame13440_real_B.png'
p352
aS'frame13440_fake_A.png'
p353
asS'11500'
p354
(lp355
S'frame11500_real_B.png'
p356
aS'frame11500_fake_A.png'
p357
asS'102534'
p358
(lp359
S'102534_real_B.png'
p360
aS'102534_fake_A.png'
p361
asS'100638'
p362
(lp363
S'100638_real_B.png'
p364
aS'100638_fake_A.png'
p365
asS'100192'
p366
(lp367
S'100192_real_B.png'
p368
aS'100192_fake_A.png'
p369
asS'101139'
p370
(lp371
S'101139_real_B.png'
p372
aS'101139_fake_A.png'
p373
asS'101137'
p374
(lp375
S'101137_real_B.png'
p376
aS'101137_fake_A.png'
p377
asS'101135'
p378
(lp379
S'101135_real_B.png'
p380
aS'101135_fake_A.png'
p381
asS'20120'
p382
(lp383
S'frame20120_real_B.png'
p384
aS'frame20120_fake_A.png'
p385
asS'102019'
p386
(lp387
S'102019_real_B.png'
p388
aS'102019_fake_A.png'
p389
asS'100855'
p390
(lp391
S'100855_real_B.png'
p392
aS'100855_fake_A.png'
p393
asS'101924'
p394
(lp395
S'101924_real_B.png'
p396
aS'101924_fake_A.png'
p397
asS'100039'
p398
(lp399
S'100039_real_B.png'
p400
aS'100039_fake_A.png'
p401
asS'101843'
p402
(lp403
S'101843_real_B.png'
p404
aS'101843_fake_A.png'
p405
asS'100426'
p406
(lp407
S'100426_real_B.png'
p408
aS'100426_fake_A.png'
p409
asS'101618'
p410
(lp411
S'101618_real_B.png'
p412
aS'101618_fake_A.png'
p413
asS'100509'
p414
(lp415
S'100509_real_B.png'
p416
aS'100509_fake_A.png'
p417
asS'100133'
p418
(lp419
S'100133_rec_B.png'
p420
aS'100133_fake_A.png'
p421
asS'102224'
p422
(lp423
S'102224_real_B.png'
p424
aS'102224_fake_A.png'
p425
asS'102222'
p426
(lp427
S'102222_real_B.png'
p428
aS'102222_fake_A.png'
p429
asS'101201'
p430
(lp431
S'101201_real_B.png'
p432
aS'101201_fake_A.png'
p433
asS'102229'
p434
(lp435
S'102229_real_B.png'
p436
aS'102229_fake_A.png'
p437
asS'102383'
p438
(lp439
S'102383_real_B.png'
p440
aS'102383_fake_A.png'
p441
asS'100581'
p442
(lp443
S'100581_real_B.png'
p444
aS'100581_fake_A.png'
p445
asS'100741'
p446
(lp447
S'100741_real_B.png'
p448
aS'100741_fake_A.png'
p449
asS'100620'
p450
(lp451
S'100620_real_B.png'
p452
aS'100620_fake_A.png'
p453
asS'100625'
p454
(lp455
S'100625_real_B.png'
p456
aS'100625_fake_A.png'
p457
asS'102543'
p458
(lp459
S'102543_real_B.png'
p460
aS'102543_fake_A.png'
p461
asS'100900'
p462
(lp463
S'100900_real_B.png'
p464
aS'100900_fake_A.png'
p465
asS'102005'
p466
(lp467
S'102005_real_B.png'
p468
aS'102005_fake_A.png'
p469
asS'101995'
p470
(lp471
S'101995_real_B.png'
p472
aS'101995_fake_A.png'
p473
asS'102206'
p474
(lp475
S'102206_real_B.png'
p476
aS'102206_fake_A.png'
p477
asS'101915'
p478
(lp479
S'101915_real_B.png'
p480
aS'101915_fake_A.png'
p481
asS'26640'
p482
(lp483
S'frame26640_real_B.png'
p484
aS'frame26640_fake_A.png'
p485
asS'101851'
p486
(lp487
S'101851_real_B.png'
p488
aS'101851_fake_A.png'
p489
asS'100690'
p490
(lp491
S'100690_real_B.png'
p492
aS'100690_fake_A.png'
p493
asS'100761'
p494
(lp495
S'100761_real_B.png'
p496
aS'100761_fake_A.png'
p497
asS'100106'
p498
(lp499
S'100106_real_B.png'
p500
aS'100106_fake_A.png'
p501
asS'101740'
p502
(lp503
S'101740_real_B.png'
p504
aS'101740_fake_A.png'
p505
asS'102394'
p506
(lp507
S'102394_real_B.png'
p508
aS'102394_fake_A.png'
p509
asS'102313'
p510
(lp511
S'102313_real_B.png'
p512
aS'102313_fake_A.png'
p513
asS'100187'
p514
(lp515
S'100187_real_B.png'
p516
aS'100187_fake_A.png'
p517
asS'102493'
p518
(lp519
S'102493_real_B.png'
p520
aS'102493_fake_A.png'
p521
asS'102555'
p522
(lp523
S'102555_real_B.png'
p524
aS'102555_fake_A.png'
p525
asS'101340'
p526
(lp527
S'101340_real_B.png'
p528
aS'101340_fake_A.png'
p529
asS'102593'
p530
(lp531
S'102593_real_B.png'
p532
aS'102593_fake_A.png'
p533
asS'102553'
p534
(lp535
S'102553_real_B.png'
p536
aS'102553_fake_A.png'
p537
asS'101117'
p538
(lp539
S'101117_real_B.png'
p540
aS'101117_fake_A.png'
p541
asS'100011'
p542
(lp543
S'100011_real_B.png'
p544
aS'100011_fake_A.png'
p545
asS'101670'
p546
(lp547
S'101670_real_B.png'
p548
aS'101670_fake_A.png'
p549
asS'101673'
p550
(lp551
S'101673_real_B.png'
p552
aS'101673_fake_A.png'
p553
asS'100688'
p554
(lp555
S'100688_real_B.png'
p556
aS'100688_fake_A.png'
p557
asS'100598'
p558
(lp559
S'100598_real_B.png'
p560
aS'100598_fake_A.png'
p561
asS'101633'
p562
(lp563
S'101633_real_B.png'
p564
aS'101633_fake_A.png'
p565
asS'100351'
p566
(lp567
S'100351_real_B.png'
p568
aS'100351_fake_A.png'
p569
asS'101375'
p570
(lp571
S'101375_real_B.png'
p572
aS'101375_fake_A.png'
p573
asS'100644'
p574
(lp575
S'100644_real_B.png'
p576
aS'100644_fake_A.png'
p577
asS'102568'
p578
(lp579
S'102568_real_B.png'
p580
aS'102568_fake_A.png'
p581
asS'100826'
p582
(lp583
S'100826_real_B.png'
p584
aS'100826_fake_A.png'
p585
asS'100829'
p586
(lp587
S'100829_real_B.png'
p588
aS'100829_fake_A.png'
p589
asS'101269'
p590
(lp591
S'101269_real_B.png'
p592
aS'101269_fake_A.png'
p593
asS'100199'
p594
(lp595
S'100199_real_B.png'
p596
aS'100199_fake_A.png'
p597
asS'102566'
p598
(lp599
S'102566_real_B.png'
p600
aS'102566_fake_A.png'
p601
as.