ccollections
defaultdict
p0
(c__builtin__
list
p1
tp2
Rp3
S'100558'
p4
(lp5
S'100558_real_B.png'
p6
aS'100558_fake_A.png'
p7
asS'100415'
p8
(lp9
S'100415_real_B.png'
p10
aS'100415_fake_A.png'
p11
asS'100579'
p12
(lp13
S'100579_real_B.png'
p14
aS'100579_fake_A.png'
p15
asS'100192'
p16
(lp17
S'100192_real_B.png'
p18
aS'100192_fake_A.png'
p19
asS'100096'
p20
(lp21
S'100096_real_B.png'
p22
aS'100096_fake_A.png'
p23
asS'100106'
p24
(lp25
S'100106_real_B.png'
p26
aS'100106_fake_A.png'
p27
asS'100247'
p28
(lp29
S'100247_rec_B.png'
p30
aS'100247_fake_A.png'
p31
asS'100032'
p32
(lp33
S'100032_real_B.png'
p34
aS'100032_fake_A.png'
p35
asS'100014'
p36
(lp37
S'100014_real_B.png'
p38
aS'100014_fake_A.png'
p39
asS'100187'
p40
(lp41
S'100187_real_B.png'
p42
aS'100187_fake_A.png'
p43
asS'100011'
p44
(lp45
S'100011_real_B.png'
p46
aS'100011_fake_A.png'
p47
asS'100039'
p48
(lp49
S'100039_real_B.png'
p50
aS'100039_fake_A.png'
p51
asS'100591'
p52
(lp53
S'100591_real_B.png'
p54
aS'100591_fake_A.png'
p55
asS'100598'
p56
(lp57
S'100598_real_B.png'
p58
aS'100598_fake_A.png'
p59
asS'100561'
p60
(lp61
S'100561_real_B.png'
p62
aS'100561_fake_A.png'
p63
asS'100053'
p64
(lp65
S'100053_real_B.png'
p66
aS'100053_fake_A.png'
p67
asS'100409'
p68
(lp69
S'100409_real_B.png'
p70
aS'100409_fake_A.png'
p71
asS'100426'
p72
(lp73
S'100426_real_B.png'
p74
aS'100426_fake_A.png'
p75
asS'100351'
p76
(lp77
S'100351_real_B.png'
p78
aS'100351_fake_A.png'
p79
asS'100509'
p80
(lp81
S'100509_real_B.png'
p82
aS'100509_fake_A.png'
p83
asS'100133'
p84
(lp85
S'100133_rec_B.png'
p86
aS'100133_fake_A.png'
p87
asS'100089'
p88
(lp89
S'100089_real_B.png'
p90
aS'100089_fake_A.png'
p91
asS'100065'
p92
(lp93
S'100065_real_B.png'
p94
aS'100065_fake_A.png'
p95
asS'100505'
p96
(lp97
S'100505_real_B.png'
p98
aS'100505_fake_A.png'
p99
asS'100507'
p100
(lp101
S'100507_rec_B.png'
p102
aS'100507_fake_A.png'
p103
asS'100581'
p104
(lp105
S'100581_real_B.png'
p106
aS'100581_fake_A.png'
p107
asS'100620'
p108
(lp109
S'100620_real_B.png'
p110
aS'100620_fake_A.png'
p111
asS'100199'
p112
(lp113
S'100199_real_B.png'
p114
aS'100199_fake_A.png'
p115
as.