ccollections
defaultdict
p0
(c__builtin__
list
p1
tp2
Rp3
S'23200'
p4
(lp5
S'frame23200_real_B.png'
p6
aS'frame23200_fake_A.png'
p7
asS'102582'
p8
(lp9
S'102582_real_B.png'
p10
aS'102582_fake_A.png'
p11
asS'102109'
p12
(lp13
S'102109_real_B.png'
p14
aS'102109_fake_A.png'
p15
asS'101486'
p16
(lp17
S'101486_real_B.png'
p18
aS'101486_fake_A.png'
p19
asS'101762'
p20
(lp21
S'101762_real_B.png'
p22
aS'101762_fake_A.png'
p23
asS'15680'
p24
(lp25
S'frame15680_real_B.png'
p26
aS'frame15680_fake_A.png'
p27
asS'20280'
p28
(lp29
S'frame20280_real_B.png'
p30
aS'frame20280_fake_A.png'
p31
asS'101565'
p32
(lp33
S'101565_real_B.png'
p34
aS'101565_fake_A.png'
p35
asS'100778'
p36
(lp37
S'100778_real_B.png'
p38
aS'100778_fake_A.png'
p39
asS'101403'
p40
(lp41
S'101403_real_B.png'
p42
aS'101403_fake_A.png'
p43
asS'102591'
p44
(lp45
S'102591_real_B.png'
p46
aS'102591_fake_A.png'
p47
asS'102355'
p48
(lp49
S'102355_real_B.png'
p50
aS'102355_fake_A.png'
p51
asS'101880'
p52
(lp53
S'101880_real_B.png'
p54
aS'101880_fake_A.png'
p55
asS'100780'
p56
(lp57
S'100780_real_B.png'
p58
aS'100780_fake_A.png'
p59
asS'101041'
p60
(lp61
S'101041_real_B.png'
p62
aS'101041_fake_A.png'
p63
asS'100803'
p64
(lp65
S'100803_real_B.png'
p66
aS'100803_fake_A.png'
p67
asS'100789'
p68
(lp69
S'100789_real_B.png'
p70
aS'100789_fake_A.png'
p71
asS'28720'
p72
(lp73
S'frame28720_real_B.png'
p74
aS'frame28720_fake_A.png'
p75
asS'102260'
p76
(lp77
S'102260_real_B.png'
p78
aS'102260_fake_A.png'
p79
asS'12380'
p80
(lp81
S'frame12380_real_B.png'
p82
aS'frame12380_fake_A.png'
p83
asS'102213'
p84
(lp85
S'102213_real_B.png'
p86
aS'102213_fake_A.png'
p87
asS'101418'
p88
(lp89
S'101418_real_B.png'
p90
aS'101418_fake_A.png'
p91
asS'101314'
p92
(lp93
S'101314_real_B.png'
p94
aS'101314_fake_A.png'
p95
asS'100661'
p96
(lp97
S'100661_real_B.png'
p98
aS'100661_fake_A.png'
p99
asS'100660'
p100
(lp101
S'100660_real_B.png'
p102
aS'100660_fake_A.png'
p103
asS'101786'
p104
(lp105
S'101786_real_B.png'
p106
aS'101786_fake_A.png'
p107
asS'101244'
p108
(lp109
S'101244_real_B.png'
p110
aS'101244_fake_A.png'
p111
asS'102329'
p112
(lp113
S'102329_real_B.png'
p114
aS'102329_fake_A.png'
p115
asS'101951'
p116
(lp117
S'101951_real_B.png'
p118
aS'101951_fake_A.png'
p119
asS'101952'
p120
(lp121
S'101952_real_B.png'
p122
aS'101952_fake_A.png'
p123
asS'101953'
p124
(lp125
S'101953_real_B.png'
p126
aS'101953_fake_A.png'
p127
asS'102288'
p128
(lp129
S'102288_real_B.png'
p130
aS'102288_fake_A.png'
p131
asS'102552'
p132
(lp133
S'102552_real_B.png'
p134
aS'102552_fake_A.png'
p135
asS'102264'
p136
(lp137
S'102264_real_B.png'
p138
aS'102264_fake_A.png'
p139
asS'101256'
p140
(lp141
S'101256_real_B.png'
p142
aS'101256_fake_A.png'
p143
asS'101158'
p144
(lp145
S'101158_real_B.png'
p146
aS'101158_fake_A.png'
p147
asS'101154'
p148
(lp149
S'101154_real_B.png'
p150
aS'101154_fake_A.png'
p151
asS'101383'
p152
(lp153
S'101383_real_B.png'
p154
aS'101383_fake_A.png'
p155
asS'100719'
p156
(lp157
S'100719_real_B.png'
p158
aS'100719_fake_A.png'
p159
asS'100657'
p160
(lp161
S'100657_real_B.png'
p162
aS'100657_fake_A.png'
p163
asS'102214'
p164
(lp165
S'102214_real_B.png'
p166
aS'102214_fake_A.png'
p167
asS'102215'
p168
(lp169
S'102215_real_B.png'
p170
aS'102215_fake_A.png'
p171
asS'101308'
p172
(lp173
S'101308_real_B.png'
p174
aS'101308_fake_A.png'
p175
asS'100717'
p176
(lp177
S'100717_real_B.png'
p178
aS'100717_fake_A.png'
p179
asS'100844'
p180
(lp181
S'100844_real_B.png'
p182
aS'100844_fake_A.png'
p183
asS'102037'
p184
(lp185
S'102037_real_B.png'
p186
aS'102037_fake_A.png'
p187
asS'102139'
p188
(lp189
S'102139_real_B.png'
p190
aS'102139_fake_A.png'
p191
asS'102138'
p192
(lp193
S'102138_real_B.png'
p194
aS'102138_fake_A.png'
p195
asS'102330'
p196
(lp197
S'102330_real_B.png'
p198
aS'102330_fake_A.png'
p199
asS'102334'
p200
(lp201
S'102334_real_B.png'
p202
aS'102334_fake_A.png'
p203
asS'101732'
p204
(lp205
S'101732_real_B.png'
p206
aS'101732_fake_A.png'
p207
asS'100899'
p208
(lp209
S'100899_real_B.png'
p210
aS'100899_fake_A.png'
p211
asS'100721'
p212
(lp213
S'100721_rec_B.png'
p214
aS'100721_fake_A.png'
p215
asS'100723'
p216
(lp217
S'100723_real_B.png'
p218
aS'100723_fake_A.png'
p219
asS'101140'
p220
(lp221
S'101140_real_B.png'
p222
aS'101140_fake_A.png'
p223
asS'101147'
p224
(lp225
S'101147_real_B.png'
p226
aS'101147_fake_A.png'
p227
asS'100689'
p228
(lp229
S'100689_real_B.png'
p230
aS'100689_fake_A.png'
p231
asS'101633'
p232
(lp233
S'101633_real_B.png'
p234
aS'101633_fake_A.png'
p235
asS'102449'
p236
(lp237
S'102449_real_B.png'
p238
aS'102449_fake_A.png'
p239
asS'101336'
p240
(lp241
S'101336_real_B.png'
p242
aS'101336_fake_A.png'
p243
asS'100647'
p244
(lp245
S'100647_real_B.png'
p246
aS'100647_fake_A.png'
p247
asS'100646'
p248
(lp249
S'100646_real_B.png'
p250
aS'100646_fake_A.png'
p251
asS'100860'
p252
(lp253
S'100860_real_B.png'
p254
aS'100860_fake_A.png'
p255
asS'100806'
p256
(lp257
S'100806_real_B.png'
p258
aS'100806_fake_A.png'
p259
asS'102144'
p260
(lp261
S'102144_real_B.png'
p262
aS'102144_fake_A.png'
p263
asS'100885'
p264
(lp265
S'100885_real_B.png'
p266
aS'100885_fake_A.png'
p267
asS'101937'
p268
(lp269
S'101937_real_B.png'
p270
aS'101937_fake_A.png'
p271
asS'101837'
p272
(lp273
S'101837_real_B.png'
p274
aS'101837_fake_A.png'
p275
asS'100889'
p276
(lp277
S'100889_real_B.png'
p278
aS'100889_fake_A.png'
p279
asS'101831'
p280
(lp281
S'101831_real_B.png'
p282
aS'101831_fake_A.png'
p283
asS'101830'
p284
(lp285
S'101830_real_B.png'
p286
aS'101830_fake_A.png'
p287
asS'101237'
p288
(lp289
S'101237_real_B.png'
p290
aS'101237_fake_A.png'
p291
asS'101239'
p292
(lp293
S'101239_real_B.png'
p294
aS'101239_fake_A.png'
p295
asS'13440'
p296
(lp297
S'frame13440_real_B.png'
p298
aS'frame13440_fake_A.png'
p299
asS'11500'
p300
(lp301
S'frame11500_real_B.png'
p302
aS'frame11500_fake_A.png'
p303
asS'102534'
p304
(lp305
S'102534_real_B.png'
p306
aS'102534_fake_A.png'
p307
asS'100638'
p308
(lp309
S'100638_real_B.png'
p310
aS'100638_fake_A.png'
p311
asS'101139'
p312
(lp313
S'101139_real_B.png'
p314
aS'101139_fake_A.png'
p315
asS'101137'
p316
(lp317
S'101137_real_B.png'
p318
aS'101137_fake_A.png'
p319
asS'101135'
p320
(lp321
S'101135_real_B.png'
p322
aS'101135_fake_A.png'
p323
asS'20120'
p324
(lp325
S'frame20120_real_B.png'
p326
aS'frame20120_fake_A.png'
p327
asS'102019'
p328
(lp329
S'102019_real_B.png'
p330
aS'102019_fake_A.png'
p331
asS'100855'
p332
(lp333
S'100855_real_B.png'
p334
aS'100855_fake_A.png'
p335
asS'101924'
p336
(lp337
S'101924_real_B.png'
p338
aS'101924_fake_A.png'
p339
asS'101843'
p340
(lp341
S'101843_real_B.png'
p342
aS'101843_fake_A.png'
p343
asS'101618'
p344
(lp345
S'101618_real_B.png'
p346
aS'101618_fake_A.png'
p347
asS'102224'
p348
(lp349
S'102224_real_B.png'
p350
aS'102224_fake_A.png'
p351
asS'102222'
p352
(lp353
S'102222_real_B.png'
p354
aS'102222_fake_A.png'
p355
asS'101201'
p356
(lp357
S'101201_real_B.png'
p358
aS'101201_fake_A.png'
p359
asS'102229'
p360
(lp361
S'102229_real_B.png'
p362
aS'102229_fake_A.png'
p363
asS'102383'
p364
(lp365
S'102383_real_B.png'
p366
aS'102383_fake_A.png'
p367
asS'100741'
p368
(lp369
S'100741_real_B.png'
p370
aS'100741_fake_A.png'
p371
asS'100625'
p372
(lp373
S'100625_real_B.png'
p374
aS'100625_fake_A.png'
p375
asS'102543'
p376
(lp377
S'102543_real_B.png'
p378
aS'102543_fake_A.png'
p379
asS'100900'
p380
(lp381
S'100900_real_B.png'
p382
aS'100900_fake_A.png'
p383
asS'102005'
p384
(lp385
S'102005_real_B.png'
p386
aS'102005_fake_A.png'
p387
asS'101995'
p388
(lp389
S'101995_real_B.png'
p390
aS'101995_fake_A.png'
p391
asS'102206'
p392
(lp393
S'102206_real_B.png'
p394
aS'102206_fake_A.png'
p395
asS'101915'
p396
(lp397
S'101915_real_B.png'
p398
aS'101915_fake_A.png'
p399
asS'26640'
p400
(lp401
S'frame26640_real_B.png'
p402
aS'frame26640_fake_A.png'
p403
asS'101851'
p404
(lp405
S'101851_real_B.png'
p406
aS'101851_fake_A.png'
p407
asS'100690'
p408
(lp409
S'100690_real_B.png'
p410
aS'100690_fake_A.png'
p411
asS'100761'
p412
(lp413
S'100761_real_B.png'
p414
aS'100761_fake_A.png'
p415
asS'101740'
p416
(lp417
S'101740_real_B.png'
p418
aS'101740_fake_A.png'
p419
asS'102394'
p420
(lp421
S'102394_real_B.png'
p422
aS'102394_fake_A.png'
p423
asS'102313'
p424
(lp425
S'102313_real_B.png'
p426
aS'102313_fake_A.png'
p427
asS'102493'
p428
(lp429
S'102493_real_B.png'
p430
aS'102493_fake_A.png'
p431
asS'102555'
p432
(lp433
S'102555_real_B.png'
p434
aS'102555_fake_A.png'
p435
asS'101340'
p436
(lp437
S'101340_real_B.png'
p438
aS'101340_fake_A.png'
p439
asS'102593'
p440
(lp441
S'102593_real_B.png'
p442
aS'102593_fake_A.png'
p443
asS'102553'
p444
(lp445
S'102553_real_B.png'
p446
aS'102553_fake_A.png'
p447
asS'101117'
p448
(lp449
S'101117_real_B.png'
p450
aS'101117_fake_A.png'
p451
asS'101670'
p452
(lp453
S'101670_real_B.png'
p454
aS'101670_fake_A.png'
p455
asS'101673'
p456
(lp457
S'101673_real_B.png'
p458
aS'101673_fake_A.png'
p459
asS'100688'
p460
(lp461
S'100688_real_B.png'
p462
aS'100688_fake_A.png'
p463
asS'101375'
p464
(lp465
S'101375_real_B.png'
p466
aS'101375_fake_A.png'
p467
asS'100644'
p468
(lp469
S'100644_real_B.png'
p470
aS'100644_fake_A.png'
p471
asS'102568'
p472
(lp473
S'102568_real_B.png'
p474
aS'102568_fake_A.png'
p475
asS'100826'
p476
(lp477
S'100826_real_B.png'
p478
aS'100826_fake_A.png'
p479
asS'100829'
p480
(lp481
S'100829_real_B.png'
p482
aS'100829_fake_A.png'
p483
asS'101269'
p484
(lp485
S'101269_real_B.png'
p486
aS'101269_fake_A.png'
p487
asS'102566'
p488
(lp489
S'102566_real_B.png'
p490
aS'102566_fake_A.png'
p491
as.