ccollections
defaultdict
p0
(c__builtin__
list
p1
tp2
Rp3
S'102018'
p4
(lp5
S'102018_real_A.png'
p6
aS'102018_fake_B.png'
p7
asS'102107'
p8
(lp9
S'102107_real_A.png'
p10
aS'102107_fake_B.png'
p11
asS'101084'
p12
(lp13
S'101084_real_A.png'
p14
aS'101084_fake_B.png'
p15
asS'101210'
p16
(lp17
S'101210_real_A.png'
p18
aS'101210_fake_B.png'
p19
asS'101876'
p20
(lp21
S'101876_real_A.png'
p22
aS'101876_fake_B.png'
p23
asS'102101'
p24
(lp25
S'102101_real_A.png'
p26
aS'102101_fake_B.png'
p27
asS'102348'
p28
(lp29
S'102348_real_A.png'
p30
aS'102348_fake_B.png'
p31
asS'102586'
p32
(lp33
S'102586_real_A.png'
p34
aS'102586_fake_B.png'
p35
asS'102342'
p36
(lp37
S'102342_real_A.png'
p38
aS'102342_fake_B.png'
p39
asS'101653'
p40
(lp41
S'101653_real_A.png'
p42
aS'101653_fake_B.png'
p43
asS'101978'
p44
(lp45
S'101978_real_A.png'
p46
aS'101978_fake_B.png'
p47
asS'100965'
p48
(lp49
S'100965_real_A.png'
p50
aS'100965_fake_B.png'
p51
asS'101485'
p52
(lp53
S'101485_real_A.png'
p54
aS'101485_fake_B.png'
p55
asS'102458'
p56
(lp57
S'102458_real_A.png'
p58
aS'102458_fake_B.png'
p59
asS'102278'
p60
(lp61
S'102278_real_A.png'
p62
aS'102278_fake_B.png'
p63
asS'102572'
p64
(lp65
S'102572_real_A.png'
p66
aS'102572_fake_B.png'
p67
asS'101365'
p68
(lp69
S'101365_real_A.png'
p70
aS'101365_fake_B.png'
p71
asS'102312'
p72
(lp73
S'102312_real_A.png'
p74
aS'102312_fake_B.png'
p75
asS'101073'
p76
(lp77
S'101073_real_A.png'
p78
aS'101073_fake_B.png'
p79
asS'101369'
p80
(lp81
S'101369_real_A.png'
p82
aS'101369_fake_B.png'
p83
asS'102277'
p84
(lp85
S'102277_real_A.png'
p86
aS'102277_fake_B.png'
p87
asS'102270'
p88
(lp89
S'102270_real_A.png'
p90
aS'102270_fake_B.png'
p91
asS'102273'
p92
(lp93
S'102273_real_A.png'
p94
aS'102273_fake_B.png'
p95
asS'101566'
p96
(lp97
S'101566_real_A.png'
p98
aS'101566_fake_B.png'
p99
asS'101563'
p100
(lp101
S'101563_real_A.png'
p102
aS'101563_fake_B.png'
p103
asS'100778'
p104
(lp105
S'100778_real_A.png'
p106
aS'100778_fake_B.png'
p107
asS'100776'
p108
(lp109
S'100776_real_A.png'
p110
aS'100776_fake_B.png'
p111
asS'102475'
p112
(lp113
S'102475_real_A.png'
p114
aS'102475_fake_B.png'
p115
asS'101095'
p116
(lp117
S'101095_real_A.png'
p118
aS'101095_fake_B.png'
p119
asS'102297'
p120
(lp121
S'102297_real_A.png'
p122
aS'102297_fake_B.png'
p123
asS'101097'
p124
(lp125
S'101097_real_A.png'
p126
aS'101097_fake_B.png'
p127
asS'102290'
p128
(lp129
S'102290_real_A.png'
p130
aS'102290_fake_B.png'
p131
asS'101886'
p132
(lp133
S'101886_real_A.png'
p134
aS'101886_fake_B.png'
p135
asS'102095'
p136
(lp137
S'102095_real_A.png'
p138
aS'102095_fake_B.png'
p139
asS'102593'
p140
(lp141
S'102593_real_A.png'
p142
aS'102593_fake_B.png'
p143
asS'102592'
p144
(lp145
S'102592_real_A.png'
p146
aS'102592_fake_B.png'
p147
asS'101495'
p148
(lp149
S'101495_real_A.png'
p150
aS'101495_fake_B.png'
p151
asS'101714'
p152
(lp153
S'101714_real_A.png'
p154
aS'101714_fake_B.png'
p155
asS'101546'
p156
(lp157
S'101546_real_A.png'
p158
aS'101546_fake_B.png'
p159
asS'101499'
p160
(lp161
S'101499_real_A.png'
p162
aS'101499_fake_B.png'
p163
asS'101718'
p164
(lp165
S'101718_real_A.png'
p166
aS'101718_fake_B.png'
p167
asS'100789'
p168
(lp169
S'100789_real_A.png'
p170
aS'100789_fake_B.png'
p171
asS'101657'
p172
(lp173
S'101657_real_A.png'
p174
aS'101657_fake_B.png'
p175
asS'101655'
p176
(lp177
S'101655_real_A.png'
p178
aS'101655_fake_B.png'
p179
asS'102503'
p180
(lp181
S'102503_real_A.png'
p182
aS'102503_fake_B.png'
p183
asS'102269'
p184
(lp185
S'102269_real_A.png'
p186
aS'102269_fake_B.png'
p187
asS'102501'
p188
(lp189
S'102501_real_A.png'
p190
aS'102501_fake_B.png'
p191
asS'102524'
p192
(lp193
S'102524_real_A.png'
p194
aS'102524_fake_B.png'
p195
asS'101483'
p196
(lp197
S'101483_real_A.png'
p198
aS'101483_fake_B.png'
p199
asS'101397'
p200
(lp201
S'101397_real_A.png'
p202
aS'101397_fake_B.png'
p203
asS'102508'
p204
(lp205
S'102508_real_A.png'
p206
aS'102508_fake_B.png'
p207
asS'102264'
p208
(lp209
S'102264_real_A.png'
p210
aS'102264_fake_B.png'
p211
asS'100665'
p212
(lp213
S'100665_real_A.png'
p214
aS'100665_fake_B.png'
p215
asS'101249'
p216
(lp217
S'101249_real_A.png'
p218
aS'101249_fake_B.png'
p219
asS'100717'
p220
(lp221
S'100717_real_A.png'
p222
aS'100717_fake_B.png'
p223
asS'100703'
p224
(lp225
S'100703_real_A.png'
p226
aS'100703_fake_B.png'
p227
asS'102184'
p228
(lp229
S'102184_real_A.png'
p230
aS'102184_fake_B.png'
p231
asS'100701'
p232
(lp233
S'100701_real_A.png'
p234
aS'100701_fake_B.png'
p235
asS'100706'
p236
(lp237
S'100706_real_A.png'
p238
aS'100706_fake_B.png'
p239
asS'100704'
p240
(lp241
S'100704_real_A.png'
p242
aS'100704_fake_B.png'
p243
asS'102181'
p244
(lp245
S'102181_real_A.png'
p246
aS'102181_fake_B.png'
p247
asS'102284'
p248
(lp249
S'102284_real_A.png'
p250
aS'102284_fake_B.png'
p251
asS'102328'
p252
(lp253
S'102328_real_A.png'
p254
aS'102328_fake_B.png'
p255
asS'102282'
p256
(lp257
S'102282_real_A.png'
p258
aS'102282_fake_B.png'
p259
asS'101108'
p260
(lp261
S'101108_real_A.png'
p262
aS'101108_fake_B.png'
p263
asS'101702'
p264
(lp265
S'101702_real_A.png'
p266
aS'101702_fake_B.png'
p267
asS'100797'
p268
(lp269
S'100797_real_A.png'
p270
aS'100797_fake_B.png'
p271
asS'101812'
p272
(lp273
S'101812_real_A.png'
p274
aS'101812_fake_B.png'
p275
asS'102383'
p276
(lp277
S'102383_real_A.png'
p278
aS'102383_fake_B.png'
p279
asS'101256'
p280
(lp281
S'101256_real_A.png'
p282
aS'101256_fake_B.png'
p283
asS'101254'
p284
(lp285
S'101254_real_A.png'
p286
aS'101254_fake_B.png'
p287
asS'102139'
p288
(lp289
S'102139_real_A.png'
p290
aS'102139_fake_B.png'
p291
asS'101628'
p292
(lp293
S'101628_real_A.png'
p294
aS'101628_fake_B.png'
p295
asS'101551'
p296
(lp297
S'101551_real_A.png'
p298
aS'101551_fake_B.png'
p299
asS'101578'
p300
(lp301
S'101578_real_A.png'
p302
aS'101578_fake_B.png'
p303
asS'101155'
p304
(lp305
S'101155_real_A.png'
p306
aS'101155_fake_B.png'
p307
asS'101457'
p308
(lp309
S'101457_real_A.png'
p310
aS'101457_fake_B.png'
p311
asS'101153'
p312
(lp313
S'101153_real_A.png'
p314
aS'101153_fake_B.png'
p315
asS'100650'
p316
(lp317
S'100650_real_A.png'
p318
aS'100650_fake_B.png'
p319
asS'100741'
p320
(lp321
S'100741_real_A.png'
p322
aS'100741_fake_B.png'
p323
asS'102199'
p324
(lp325
S'102199_real_A.png'
p326
aS'102199_fake_B.png'
p327
asS'101549'
p328
(lp329
S'101549_real_A.png'
p330
aS'101549_fake_B.png'
p331
asS'101781'
p332
(lp333
S'101781_real_A.png'
p334
aS'101781_fake_B.png'
p335
asS'100659'
p336
(lp337
S'100659_real_A.png'
p338
aS'100659_fake_B.png'
p339
asS'101544'
p340
(lp341
S'101544_real_A.png'
p342
aS'101544_fake_B.png'
p343
asS'102454'
p344
(lp345
S'102454_real_A.png'
p346
aS'102454_fake_B.png'
p347
asS'102190'
p348
(lp349
S'102190_real_A.png'
p350
aS'102190_fake_B.png'
p351
asS'101541'
p352
(lp353
S'101541_real_A.png'
p354
aS'101541_fake_B.png'
p355
asS'102339'
p356
(lp357
S'102339_real_A.png'
p358
aS'102339_fake_B.png'
p359
asS'100818'
p360
(lp361
S'100818_real_A.png'
p362
aS'100818_fake_B.png'
p363
asS'101944'
p364
(lp365
S'101944_real_A.png'
p366
aS'101944_fake_B.png'
p367
asS'102137'
p368
(lp369
S'102137_real_A.png'
p370
aS'102137_fake_B.png'
p371
asS'102136'
p372
(lp373
S'102136_real_A.png'
p374
aS'102136_fake_B.png'
p375
asS'101948'
p376
(lp377
S'101948_real_A.png'
p378
aS'101948_fake_B.png'
p379
asS'101820'
p380
(lp381
S'101820_real_A.png'
p382
aS'101820_fake_B.png'
p383
asS'100891'
p384
(lp385
S'100891_real_A.png'
p386
aS'100891_fake_B.png'
p387
asS'101734'
p388
(lp389
S'101734_real_A.png'
p390
aS'101734_fake_B.png'
p391
asS'100953'
p392
(lp393
S'100953_real_A.png'
p394
aS'100953_fake_B.png'
p395
asS'101732'
p396
(lp397
S'101732_real_A.png'
p398
aS'101732_fake_B.png'
p399
asS'101733'
p400
(lp401
S'101733_real_A.png'
p402
aS'101733_fake_B.png'
p403
asS'101353'
p404
(lp405
S'101353_real_A.png'
p406
aS'101353_fake_B.png'
p407
asS'101005'
p408
(lp409
S'101005_real_A.png'
p410
aS'101005_fake_B.png'
p411
asS'101226'
p412
(lp413
S'101226_real_A.png'
p414
aS'101226_fake_B.png'
p415
asS'101435'
p416
(lp417
S'101435_real_A.png'
p418
aS'101435_fake_B.png'
p419
asS'101434'
p420
(lp421
S'101434_real_A.png'
p422
aS'101434_fake_B.png'
p423
asS'101143'
p424
(lp425
S'101143_real_A.png'
p426
aS'101143_fake_B.png'
p427
asS'102521'
p428
(lp429
S'102521_real_A.png'
p430
aS'102521_fake_B.png'
p431
asS'101632'
p432
(lp433
S'101632_real_A.png'
p434
aS'101632_fake_B.png'
p435
asS'101029'
p436
(lp437
S'101029_real_A.png'
p438
aS'101029_fake_B.png'
p439
asS'101123'
p440
(lp441
S'101123_real_A.png'
p442
aS'101123_fake_B.png'
p443
asS'100647'
p444
(lp445
S'100647_real_A.png'
p446
aS'100647_fake_B.png'
p447
asS'100861'
p448
(lp449
S'100861_real_A.png'
p450
aS'100861_fake_B.png'
p451
asS'100749'
p452
(lp453
S'100749_real_A.png'
p454
aS'100749_fake_B.png'
p455
asS'100641'
p456
(lp457
S'100641_real_A.png'
p458
aS'100641_fake_B.png'
p459
asS'101027'
p460
(lp461
S'101027_real_A.png'
p462
aS'101027_fake_B.png'
p463
asS'101179'
p464
(lp465
S'101179_real_A.png'
p466
aS'101179_fake_B.png'
p467
asS'100808'
p468
(lp469
S'100808_real_A.png'
p470
aS'100808_fake_B.png'
p471
asS'100805'
p472
(lp473
S'100805_real_A.png'
p474
aS'100805_fake_B.png'
p475
asS'102147'
p476
(lp477
S'102147_real_A.png'
p478
aS'102147_fake_B.png'
p479
asS'21440'
p480
(lp481
S'frame21440_real_A.png'
p482
aS'frame21440_fake_B.png'
p483
asS'101729'
p484
(lp485
S'101729_real_A.png'
p486
aS'101729_fake_B.png'
p487
asS'101935'
p488
(lp489
S'101935_real_A.png'
p490
aS'101935_fake_B.png'
p491
asS'101727'
p492
(lp493
S'101727_real_A.png'
p494
aS'101727_fake_B.png'
p495
asS'101832'
p496
(lp497
S'101832_real_A.png'
p498
aS'101832_fake_B.png'
p499
asS'101938'
p500
(lp501
S'101938_real_A.png'
p502
aS'101938_fake_B.png'
p503
asS'101472'
p504
(lp505
S'101472_real_A.png'
p506
aS'101472_fake_B.png'
p507
asS'100734'
p508
(lp509
S'100734_real_A.png'
p510
aS'100734_fake_B.png'
p511
asS'101604'
p512
(lp513
S'101604_real_A.png'
p514
aS'101604_fake_B.png'
p515
asS'101605'
p516
(lp517
S'101605_real_A.png'
p518
aS'101605_fake_B.png'
p519
asS'102535'
p520
(lp521
S'102535_real_A.png'
p522
aS'102535_fake_B.png'
p523
asS'101607'
p524
(lp525
S'101607_real_A.png'
p526
aS'101607_fake_B.png'
p527
asS'101528'
p528
(lp529
S'101528_real_A.png'
p530
aS'101528_fake_B.png'
p531
asS'101441'
p532
(lp533
S'101441_real_A.png'
p534
aS'101441_fake_B.png'
p535
asS'101137'
p536
(lp537
S'101137_real_A.png'
p538
aS'101137_fake_B.png'
p539
asS'102232'
p540
(lp541
S'102232_real_A.png'
p542
aS'102232_fake_B.png'
p543
asS'100899'
p544
(lp545
S'100899_real_A.png'
p546
aS'100899_fake_B.png'
p547
asS'102237'
p548
(lp549
S'102237_real_A.png'
p550
aS'102237_fake_B.png'
p551
asS'101190'
p552
(lp553
S'101190_real_A.png'
p554
aS'101190_fake_B.png'
p555
asS'101194'
p556
(lp557
S'101194_real_A.png'
p558
aS'101194_fake_B.png'
p559
asS'101198'
p560
(lp561
S'101198_real_A.png'
p562
aS'101198_fake_B.png'
p563
asS'101139'
p564
(lp565
S'101139_real_A.png'
p566
aS'101139_fake_B.png'
p567
asS'102559'
p568
(lp569
S'102559_real_A.png'
p570
aS'102559_fake_B.png'
p571
asS'100835'
p572
(lp573
S'100835_real_A.png'
p574
aS'100835_fake_B.png'
p575
asS'102242'
p576
(lp577
S'102242_real_A.png'
p578
aS'102242_fake_B.png'
p579
asS'101598'
p580
(lp581
S'101598_real_A.png'
p582
aS'101598_fake_B.png'
p583
asS'10200'
p584
(lp585
S'frame10200_real_A.png'
p586
aS'frame10200_fake_B.png'
p587
asS'101594'
p588
(lp589
S'101594_real_A.png'
p590
aS'101594_fake_B.png'
p591
asS'101595'
p592
(lp593
S'101595_real_A.png'
p594
aS'101595_fake_B.png'
p595
asS'100935'
p596
(lp597
S'100935_real_A.png'
p598
aS'100935_fake_B.png'
p599
asS'101591'
p600
(lp601
S'101591_real_A.png'
p602
aS'101591_fake_B.png'
p603
asS'101592'
p604
(lp605
S'101592_real_A.png'
p606
aS'101592_fake_B.png'
p607
asS'101618'
p608
(lp609
S'101618_real_A.png'
p610
aS'101618_fake_B.png'
p611
asS'101511'
p612
(lp613
S'101511_real_A.png'
p614
aS'101511_fake_B.png'
p615
asS'102220'
p616
(lp617
S'102220_real_A.png'
p618
aS'102220_fake_B.png'
p619
asS'102384'
p620
(lp621
S'102384_real_A.png'
p622
aS'102384_fake_B.png'
p623
asS'101519'
p624
(lp625
S'101519_real_A.png'
p626
aS'101519_fake_B.png'
p627
asS'102229'
p628
(lp629
S'102229_real_A.png'
p630
aS'102229_fake_B.png'
p631
asS'102228'
p632
(lp633
S'102228_real_A.png'
p634
aS'102228_fake_B.png'
p635
asS'100629'
p636
(lp637
S'100629_real_A.png'
p638
aS'100629_fake_B.png'
p639
asS'100628'
p640
(lp641
S'100628_real_A.png'
p642
aS'100628_fake_B.png'
p643
asS'101358'
p644
(lp645
S'101358_real_A.png'
p646
aS'101358_fake_B.png'
p647
asS'101129'
p648
(lp649
S'101129_real_A.png'
p650
aS'101129_fake_B.png'
p651
asS'101699'
p652
(lp653
S'101699_real_A.png'
p654
aS'101699_fake_B.png'
p655
asS'102549'
p656
(lp657
S'102549_real_A.png'
p658
aS'102549_fake_B.png'
p659
asS'102547'
p660
(lp661
S'102547_real_A.png'
p662
aS'102547_fake_B.png'
p663
asS'101121'
p664
(lp665
S'101121_real_A.png'
p666
aS'101121_fake_B.png'
p667
asS'100627'
p668
(lp669
S'100627_real_A.png'
p670
aS'100627_fake_B.png'
p671
asS'101355'
p672
(lp673
S'101355_real_A.png'
p674
aS'101355_fake_B.png'
p675
asS'100905'
p676
(lp677
S'100905_real_A.png'
p678
aS'100905_fake_B.png'
p679
asS'101189'
p680
(lp681
S'101189_real_A.png'
p682
aS'101189_fake_B.png'
p683
asS'102361'
p684
(lp685
S'102361_real_A.png'
p686
aS'102361_fake_B.png'
p687
asS'101662'
p688
(lp689
S'101662_real_A.png'
p690
aS'101662_fake_B.png'
p691
asS'101726'
p692
(lp693
S'101726_real_A.png'
p694
aS'101726_fake_B.png'
p695
asS'101582'
p696
(lp697
S'101582_real_A.png'
p698
aS'101582_fake_B.png'
p699
asS'100696'
p700
(lp701
S'100696_real_A.png'
p702
aS'100696_fake_B.png'
p703
asS'101063'
p704
(lp705
S'101063_real_A.png'
p706
aS'101063_fake_B.png'
p707
asS'101854'
p708
(lp709
S'101854_real_A.png'
p710
aS'101854_fake_B.png'
p711
asS'100693'
p712
(lp713
S'100693_real_A.png'
p714
aS'100693_fake_B.png'
p715
asS'101503'
p716
(lp717
S'101503_real_A.png'
p718
aS'101503_fake_B.png'
p719
asS'102398'
p720
(lp721
S'102398_real_A.png'
p722
aS'102398_fake_B.png'
p723
asS'101057'
p724
(lp725
S'101057_real_A.png'
p726
aS'101057_fake_B.png'
p727
asS'100826'
p728
(lp729
S'100826_real_A.png'
p730
aS'100826_fake_B.png'
p731
asS'102258'
p732
(lp733
S'102258_real_A.png'
p734
aS'102258_fake_B.png'
p735
asS'101508'
p736
(lp737
S'101508_real_A.png'
p738
aS'101508_fake_B.png'
p739
asS'101740'
p740
(lp741
S'101740_real_A.png'
p742
aS'101740_fake_B.png'
p743
asS'102412'
p744
(lp745
S'102412_real_A.png'
p746
aS'102412_fake_B.png'
p747
asS'101586'
p748
(lp749
S'101586_real_A.png'
p750
aS'101586_fake_B.png'
p751
asS'102591'
p752
(lp753
S'102591_real_A.png'
p754
aS'102591_fake_B.png'
p755
asS'101575'
p756
(lp757
S'101575_real_A.png'
p758
aS'101575_fake_B.png'
p759
asS'100751'
p760
(lp761
S'100751_real_A.png'
p762
aS'100751_fake_B.png'
p763
asS'101465'
p764
(lp765
S'101465_real_A.png'
p766
aS'101465_fake_B.png'
p767
asS'100753'
p768
(lp769
S'100753_real_A.png'
p770
aS'100753_fake_B.png'
p771
asS'102091'
p772
(lp773
S'102091_real_A.png'
p774
aS'102091_fake_B.png'
p775
asS'100719'
p776
(lp777
S'100719_real_A.png'
p778
aS'100719_fake_B.png'
p779
asS'102094'
p780
(lp781
S'102094_real_A.png'
p782
aS'102094_fake_B.png'
p783
asS'102499'
p784
(lp785
S'102499_real_A.png'
p786
aS'102499_fake_B.png'
p787
asS'101346'
p788
(lp789
S'101346_real_A.png'
p790
aS'101346_fake_B.png'
p791
asS'100913'
p792
(lp793
S'100913_real_A.png'
p794
aS'100913_fake_B.png'
p795
asS'100917'
p796
(lp797
S'100917_real_A.png'
p798
aS'100917_fake_B.png'
p799
asS'100821'
p800
(lp801
S'100821_real_A.png'
p802
aS'100821_fake_B.png'
p803
asS'100919'
p804
(lp805
S'100919_real_A.png'
p806
aS'100919_fake_B.png'
p807
asS'100820'
p808
(lp809
S'100820_real_A.png'
p810
aS'100820_fake_B.png'
p811
asS'102054'
p812
(lp813
S'102054_real_A.png'
p814
aS'102054_fake_B.png'
p815
asS'101670'
p816
(lp817
S'101670_real_A.png'
p818
aS'101670_fake_B.png'
p819
asS'101673'
p820
(lp821
S'101673_real_A.png'
p822
aS'101673_fake_B.png'
p823
asS'101856'
p824
(lp825
S'101856_real_A.png'
p826
aS'101856_fake_B.png'
p827
asS'101674'
p828
(lp829
S'101674_real_A.png'
p830
aS'101674_fake_B.png'
p831
asS'100683'
p832
(lp833
S'100683_real_A.png'
p834
aS'100683_fake_B.png'
p835
asS'100687'
p836
(lp837
S'100687_real_A.png'
p838
aS'100687_fake_B.png'
p839
asS'101778'
p840
(lp841
S'101778_real_A.png'
p842
aS'101778_fake_B.png'
p843
asS'101377'
p844
(lp845
S'101377_real_A.png'
p846
aS'101377_fake_B.png'
p847
asS'101250'
p848
(lp849
S'101250_real_A.png'
p850
aS'101250_fake_B.png'
p851
asS'101746'
p852
(lp853
S'101746_real_A.png'
p854
aS'101746_fake_B.png'
p855
asS'102169'
p856
(lp857
S'102169_real_A.png'
p858
aS'102169_fake_B.png'
p859
asS'102483'
p860
(lp861
S'102483_real_A.png'
p862
aS'102483_fake_B.png'
p863
asS'100761'
p864
(lp865
S'100761_real_A.png'
p866
aS'100761_fake_B.png'
p867
asS'102480'
p868
(lp869
S'102480_real_A.png'
p870
aS'102480_fake_B.png'
p871
asS'102161'
p872
(lp873
S'102161_real_A.png'
p874
aS'102161_fake_B.png'
p875
asS'101570'
p876
(lp877
S'101570_real_A.png'
p878
aS'101570_fake_B.png'
p879
asS'101478'
p880
(lp881
S'101478_real_A.png'
p882
aS'101478_fake_B.png'
p883
asS'101477'
p884
(lp885
S'101477_real_A.png'
p886
aS'101477_fake_B.png'
p887
asS'101177'
p888
(lp889
S'101177_real_A.png'
p890
aS'101177_fake_B.png'
p891
asS'101475'
p892
(lp893
S'101475_real_A.png'
p894
aS'101475_fake_B.png'
p895
asS'100981'
p896
(lp897
S'100981_real_A.png'
p898
aS'100981_fake_B.png'
p899
asS'100829'
p900
(lp901
S'100829_real_A.png'
p902
aS'100829_fake_B.png'
p903
asS'100747'
p904
(lp905
S'100747_real_A.png'
p906
aS'100747_fake_B.png'
p907
as.