ccollections
defaultdict
p0
(c__builtin__
list
p1
tp2
Rp3
S'100240'
p4
(lp5
S'100240_real_A.png'
p6
aS'100240_fake_B.png'
p7
asS'100078'
p8
(lp9
S'100078_real_A.png'
p10
aS'100078_fake_B.png'
p11
asS'100333'
p12
(lp13
S'100333_real_A.png'
p14
aS'100333_fake_B.png'
p15
asS'100398'
p16
(lp17
S'100398_real_A.png'
p18
aS'100398_fake_B.png'
p19
asS'100571'
p20
(lp21
S'100571_real_A.png'
p22
aS'100571_fake_B.png'
p23
asS'100108'
p24
(lp25
S'100108_real_A.png'
p26
aS'100108_fake_B.png'
p27
asS'100574'
p28
(lp29
S'100574_real_A.png'
p30
aS'100574_fake_B.png'
p31
asS'100422'
p32
(lp33
S'100422_real_A.png'
p34
aS'100422_fake_B.png'
p35
asS'100578'
p36
(lp37
S'100578_real_A.png'
p38
aS'100578_fake_B.png'
p39
asS'100114'
p40
(lp41
S'100114_real_A.png'
p42
aS'100114_fake_B.png'
p43
asS'100383'
p44
(lp45
S'100383_real_A.png'
p46
aS'100383_fake_B.png'
p47
asS'100074'
p48
(lp49
S'100074_real_A.png'
p50
aS'100074_fake_B.png'
p51
asS'100580'
p52
(lp53
S'100580_real_A.png'
p54
aS'100580_fake_B.png'
p55
asS'100126'
p56
(lp57
S'100126_real_A.png'
p58
aS'100126_fake_B.png'
p59
asS'100109'
p60
(lp61
S'100109_real_A.png'
p62
aS'100109_fake_B.png'
p63
asS'100612'
p64
(lp65
S'100612_real_A.png'
p66
aS'100612_fake_B.png'
p67
asS'100099'
p68
(lp69
S'100099_real_A.png'
p70
aS'100099_fake_B.png'
p71
asS'100364'
p72
(lp73
S'100364_real_A.png'
p74
aS'100364_fake_B.png'
p75
asS'100471'
p76
(lp77
S'100471_real_A.png'
p78
aS'100471_fake_B.png'
p79
asS'100107'
p80
(lp81
S'100107_real_A.png'
p82
aS'100107_fake_B.png'
p83
asS'100618'
p84
(lp85
S'100618_real_A.png'
p86
aS'100618_fake_B.png'
p87
asS'100117'
p88
(lp89
S'100117_real_A.png'
p90
aS'100117_fake_B.png'
p91
asS'100209'
p92
(lp93
S'100209_real_A.png'
p94
aS'100209_fake_B.png'
p95
asS'100070'
p96
(lp97
S'100070_real_A.png'
p98
aS'100070_fake_B.png'
p99
asS'100014'
p100
(lp101
S'100014_real_A.png'
p102
aS'100014_fake_B.png'
p103
asS'100059'
p104
(lp105
S'100059_real_A.png'
p106
aS'100059_fake_B.png'
p107
asS'100180'
p108
(lp109
S'100180_real_A.png'
p110
aS'100180_fake_B.png'
p111
asS'100036'
p112
(lp113
S'100036_real_A.png'
p114
aS'100036_fake_B.png'
p115
asS'100598'
p116
(lp117
S'100598_real_A.png'
p118
aS'100598_fake_B.png'
p119
asS'100507'
p120
(lp121
S'100507_real_A.png'
p122
aS'100507_fake_B.png'
p123
asS'100227'
p124
(lp125
S'100227_real_A.png'
p126
aS'100227_fake_B.png'
p127
asS'100226'
p128
(lp129
S'100226_real_A.png'
p130
aS'100226_fake_B.png'
p131
asS'100160'
p132
(lp133
S'100160_real_A.png'
p134
aS'100160_fake_B.png'
p135
asS'100387'
p136
(lp137
S'100387_real_A.png'
p138
aS'100387_fake_B.png'
p139
asS'100219'
p140
(lp141
S'100219_real_A.png'
p142
aS'100219_fake_B.png'
p143
asS'100168'
p144
(lp145
S'100168_real_A.png'
p146
aS'100168_fake_B.png'
p147
asS'100063'
p148
(lp149
S'100063_real_A.png'
p150
aS'100063_fake_B.png'
p151
asS'100011'
p152
(lp153
S'100011_real_A.png'
p154
aS'100011_fake_B.png'
p155
asS'100388'
p156
(lp157
S'100388_real_A.png'
p158
aS'100388_fake_B.png'
p159
asS'100389'
p160
(lp161
S'100389_real_A.png'
p162
aS'100389_fake_B.png'
p163
asS'100112'
p164
(lp165
S'100112_real_A.png'
p166
aS'100112_fake_B.png'
p167
asS'100463'
p168
(lp169
S'100463_real_A.png'
p170
aS'100463_fake_B.png'
p171
asS'100081'
p172
(lp173
S'100081_real_A.png'
p174
aS'100081_fake_B.png'
p175
asS'100426'
p176
(lp177
S'100426_real_A.png'
p178
aS'100426_fake_B.png'
p179
asS'100539'
p180
(lp181
S'100539_real_A.png'
p182
aS'100539_fake_B.png'
p183
asS'100540'
p184
(lp185
S'100540_real_A.png'
p186
aS'100540_fake_B.png'
p187
asS'100142'
p188
(lp189
S'100142_real_A.png'
p190
aS'100142_fake_B.png'
p191
asS'100202'
p192
(lp193
S'100202_real_A.png'
p194
aS'100202_fake_B.png'
p195
asS'100351'
p196
(lp197
S'100351_real_A.png'
p198
aS'100351_fake_B.png'
p199
asS'100130'
p200
(lp201
S'100130_real_A.png'
p202
aS'100130_fake_B.png'
p203
asS'100133'
p204
(lp205
S'100133_real_A.png'
p206
aS'100133_fake_B.png'
p207
asS'100378'
p208
(lp209
S'100378_real_A.png'
p210
aS'100378_fake_B.png'
p211
asS'100607'
p212
(lp213
S'100607_real_A.png'
p214
aS'100607_fake_B.png'
p215
asS'100606'
p216
(lp217
S'100606_real_A.png'
p218
aS'100606_fake_B.png'
p219
asS'100304'
p220
(lp221
S'100304_real_A.png'
p222
aS'100304_fake_B.png'
p223
asS'100138'
p224
(lp225
S'100138_real_A.png'
p226
aS'100138_fake_B.png'
p227
asS'100111'
p228
(lp229
S'100111_real_A.png'
p230
aS'100111_fake_B.png'
p231
asS'100279'
p232
(lp233
S'100279_real_A.png'
p234
aS'100279_fake_B.png'
p235
asS'100441'
p236
(lp237
S'100441_real_A.png'
p238
aS'100441_fake_B.png'
p239
asS'100374'
p240
(lp241
S'100374_real_A.png'
p242
aS'100374_fake_B.png'
p243
asS'100218'
p244
(lp245
S'100218_real_A.png'
p246
aS'100218_fake_B.png'
p247
asS'100104'
p248
(lp249
S'100104_real_A.png'
p250
aS'100104_fake_B.png'
p251
asS'100178'
p252
(lp253
S'100178_real_A.png'
p254
aS'100178_fake_B.png'
p255
asS'100084'
p256
(lp257
S'100084_real_A.png'
p258
aS'100084_fake_B.png'
p259
asS'100317'
p260
(lp261
S'100317_real_A.png'
p262
aS'100317_fake_B.png'
p263
asS'100025'
p264
(lp265
S'100025_real_A.png'
p266
aS'100025_fake_B.png'
p267
asS'100087'
p268
(lp269
S'100087_real_A.png'
p270
aS'100087_fake_B.png'
p271
asS'100021'
p272
(lp273
S'100021_real_A.png'
p274
aS'100021_fake_B.png'
p275
asS'100046'
p276
(lp277
S'100046_real_A.png'
p278
aS'100046_fake_B.png'
p279
as.