ccollections
defaultdict
p0
(tRp1
S'102018'
p2
(lp3
S'102018_real_A.png'
p4
aS'102018_fake_B.png'
p5
asS'102107'
p6
(lp7
S'102107_real_A.png'
p8
aS'102107_fake_B.png'
p9
asS'101084'
p10
(lp11
S'101084_real_A.png'
p12
aS'101084_fake_B.png'
p13
asS'101210'
p14
(lp15
S'101210_real_A.png'
p16
aS'101210_fake_B.png'
p17
asS'101876'
p18
(lp19
S'101876_real_A.png'
p20
aS'101876_fake_B.png'
p21
asS'102101'
p22
(lp23
S'102101_real_A.png'
p24
aS'102101_fake_B.png'
p25
asS'102348'
p26
(lp27
S'102348_real_A.png'
p28
aS'102348_fake_B.png'
p29
asS'102586'
p30
(lp31
S'102586_real_A.png'
p32
aS'102586_fake_B.png'
p33
asS'102342'
p34
(lp35
S'102342_real_A.png'
p36
aS'102342_fake_B.png'
p37
asS'100571'
p38
(lp39
S'100571_real_A.png'
p40
aS'100571_fake_B.png'
p41
asS'101653'
p42
(lp43
S'101653_real_A.png'
p44
aS'101653_fake_B.png'
p45
asS'101978'
p46
(lp47
S'101978_real_A.png'
p48
aS'101978_fake_B.png'
p49
asS'100965'
p50
(lp51
S'100965_real_A.png'
p52
aS'100965_fake_B.png'
p53
asS'100574'
p54
(lp55
S'100574_real_A.png'
p56
aS'100574_fake_B.png'
p57
asS'101485'
p58
(lp59
S'101485_real_A.png'
p60
aS'101485_fake_B.png'
p61
asS'100578'
p62
(lp63
S'100578_real_A.png'
p64
aS'100578_fake_B.png'
p65
asS'100074'
p66
(lp67
S'100074_real_A.png'
p68
aS'100074_fake_B.png'
p69
asS'102458'
p70
(lp71
S'102458_real_A.png'
p72
aS'102458_fake_B.png'
p73
asS'102278'
p74
(lp75
S'102278_real_A.png'
p76
aS'102278_fake_B.png'
p77
asS'102572'
p78
(lp79
S'102572_real_A.png'
p80
aS'102572_fake_B.png'
p81
asS'101365'
p82
(lp83
S'101365_real_A.png'
p84
aS'101365_fake_B.png'
p85
asS'102312'
p86
(lp87
S'102312_real_A.png'
p88
aS'102312_fake_B.png'
p89
asS'101073'
p90
(lp91
S'101073_real_A.png'
p92
aS'101073_fake_B.png'
p93
asS'100471'
p94
(lp95
S'100471_real_A.png'
p96
aS'100471_fake_B.png'
p97
asS'101369'
p98
(lp99
S'101369_real_A.png'
p100
aS'101369_fake_B.png'
p101
asS'102277'
p102
(lp103
S'102277_real_A.png'
p104
aS'102277_fake_B.png'
p105
asS'102270'
p106
(lp107
S'102270_real_A.png'
p108
aS'102270_fake_B.png'
p109
asS'100099'
p110
(lp111
S'100099_real_A.png'
p112
aS'100099_fake_B.png'
p113
asS'100209'
p114
(lp115
S'100209_real_A.png'
p116
aS'100209_fake_B.png'
p117
asS'102273'
p118
(lp119
S'102273_real_A.png'
p120
aS'102273_fake_B.png'
p121
asS'101566'
p122
(lp123
S'101566_real_A.png'
p124
aS'101566_fake_B.png'
p125
asS'101563'
p126
(lp127
S'101563_real_A.png'
p128
aS'101563_fake_B.png'
p129
asS'100778'
p130
(lp131
S'100778_real_A.png'
p132
aS'100778_fake_B.png'
p133
asS'100776'
p134
(lp135
S'100776_real_A.png'
p136
aS'100776_fake_B.png'
p137
asS'100540'
p138
(lp139
S'100540_real_A.png'
p140
aS'100540_fake_B.png'
p141
asS'102475'
p142
(lp143
S'102475_real_A.png'
p144
aS'102475_fake_B.png'
p145
asS'100160'
p146
(lp147
S'100160_real_A.png'
p148
aS'100160_fake_B.png'
p149
asS'101095'
p150
(lp151
S'101095_real_A.png'
p152
aS'101095_fake_B.png'
p153
asS'102297'
p154
(lp155
S'102297_real_A.png'
p156
aS'102297_fake_B.png'
p157
asS'101097'
p158
(lp159
S'101097_real_A.png'
p160
aS'101097_fake_B.png'
p161
asS'100387'
p162
(lp163
S'100387_real_A.png'
p164
aS'100387_fake_B.png'
p165
asS'100383'
p166
(lp167
S'100383_real_A.png'
p168
aS'100383_fake_B.png'
p169
asS'102290'
p170
(lp171
S'102290_real_A.png'
p172
aS'102290_fake_B.png'
p173
asS'100046'
p174
(lp175
S'100046_real_A.png'
p176
aS'100046_fake_B.png'
p177
asS'101886'
p178
(lp179
S'101886_real_A.png'
p180
aS'101886_fake_B.png'
p181
asS'102095'
p182
(lp183
S'102095_real_A.png'
p184
aS'102095_fake_B.png'
p185
asS'102593'
p186
(lp187
S'102593_real_A.png'
p188
aS'102593_fake_B.png'
p189
asS'102592'
p190
(lp191
S'102592_real_A.png'
p192
aS'102592_fake_B.png'
p193
asS'100226'
p194
(lp195
S'100226_real_A.png'
p196
aS'100226_fake_B.png'
p197
asS'100388'
p198
(lp199
S'100388_real_A.png'
p200
aS'100388_fake_B.png'
p201
asS'100389'
p202
(lp203
S'100389_real_A.png'
p204
aS'100389_fake_B.png'
p205
asS'100378'
p206
(lp207
S'100378_real_A.png'
p208
aS'100378_fake_B.png'
p209
asS'101495'
p210
(lp211
S'101495_real_A.png'
p212
aS'101495_fake_B.png'
p213
asS'101714'
p214
(lp215
S'101714_real_A.png'
p216
aS'101714_fake_B.png'
p217
asS'101546'
p218
(lp219
S'101546_real_A.png'
p220
aS'101546_fake_B.png'
p221
asS'101499'
p222
(lp223
S'101499_real_A.png'
p224
aS'101499_fake_B.png'
p225
asS'101718'
p226
(lp227
S'101718_real_A.png'
p228
aS'101718_fake_B.png'
p229
asS'100789'
p230
(lp231
S'100789_real_A.png'
p232
aS'100789_fake_B.png'
p233
asS'101657'
p234
(lp235
S'101657_real_A.png'
p236
aS'101657_fake_B.png'
p237
asS'101143'
p238
(lp239
S'101143_real_A.png'
p240
aS'101143_fake_B.png'
p241
asS'101655'
p242
(lp243
S'101655_real_A.png'
p244
aS'101655_fake_B.png'
p245
asS'100063'
p246
(lp247
S'100063_real_A.png'
p248
aS'100063_fake_B.png'
p249
asS'102503'
p250
(lp251
S'102503_real_A.png'
p252
aS'102503_fake_B.png'
p253
asS'102269'
p254
(lp255
S'102269_real_A.png'
p256
aS'102269_fake_B.png'
p257
asS'102501'
p258
(lp259
S'102501_real_A.png'
p260
aS'102501_fake_B.png'
p261
asS'101483'
p262
(lp263
S'101483_real_A.png'
p264
aS'101483_fake_B.png'
p265
asS'101397'
p266
(lp267
S'101397_real_A.png'
p268
aS'101397_fake_B.png'
p269
asS'102508'
p270
(lp271
S'102508_real_A.png'
p272
aS'102508_fake_B.png'
p273
asS'100279'
p274
(lp275
S'100279_real_A.png'
p276
aS'100279_fake_B.png'
p277
asS'102264'
p278
(lp279
S'102264_real_A.png'
p280
aS'102264_fake_B.png'
p281
asS'100665'
p282
(lp283
S'100665_real_A.png'
p284
aS'100665_fake_B.png'
p285
asS'101249'
p286
(lp287
S'101249_real_A.png'
p288
aS'101249_fake_B.png'
p289
asS'100011'
p290
(lp291
S'100011_real_A.png'
p292
aS'100011_fake_B.png'
p293
asS'100717'
p294
(lp295
S'100717_real_A.png'
p296
aS'100717_fake_B.png'
p297
asS'100703'
p298
(lp299
S'100703_real_A.png'
p300
aS'100703_fake_B.png'
p301
asS'102184'
p302
(lp303
S'102184_real_A.png'
p304
aS'102184_fake_B.png'
p305
asS'100701'
p306
(lp307
S'100701_real_A.png'
p308
aS'100701_fake_B.png'
p309
asS'100706'
p310
(lp311
S'100706_real_A.png'
p312
aS'100706_fake_B.png'
p313
asS'100704'
p314
(lp315
S'100704_real_A.png'
p316
aS'100704_fake_B.png'
p317
asS'102181'
p318
(lp319
S'102181_real_A.png'
p320
aS'102181_fake_B.png'
p321
asS'100114'
p322
(lp323
S'100114_real_A.png'
p324
aS'100114_fake_B.png'
p325
asS'102284'
p326
(lp327
S'102284_real_A.png'
p328
aS'102284_fake_B.png'
p329
asS'102328'
p330
(lp331
S'102328_real_A.png'
p332
aS'102328_fake_B.png'
p333
asS'102282'
p334
(lp335
S'102282_real_A.png'
p336
aS'102282_fake_B.png'
p337
asS'100398'
p338
(lp339
S'100398_real_A.png'
p340
aS'100398_fake_B.png'
p341
asS'101108'
p342
(lp343
S'101108_real_A.png'
p344
aS'101108_fake_B.png'
p345
asS'100580'
p346
(lp347
S'100580_real_A.png'
p348
aS'100580_fake_B.png'
p349
asS'101702'
p350
(lp351
S'101702_real_A.png'
p352
aS'101702_fake_B.png'
p353
asS'100797'
p354
(lp355
S'100797_real_A.png'
p356
aS'100797_fake_B.png'
p357
asS'101812'
p358
(lp359
S'101812_real_A.png'
p360
aS'101812_fake_B.png'
p361
asS'100219'
p362
(lp363
S'100219_real_A.png'
p364
aS'100219_fake_B.png'
p365
asS'102383'
p366
(lp367
S'102383_real_A.png'
p368
aS'102383_fake_B.png'
p369
asS'101256'
p370
(lp371
S'101256_real_A.png'
p372
aS'101256_fake_B.png'
p373
asS'101254'
p374
(lp375
S'101254_real_A.png'
p376
aS'101254_fake_B.png'
p377
asS'102139'
p378
(lp379
S'102139_real_A.png'
p380
aS'102139_fake_B.png'
p381
asS'101628'
p382
(lp383
S'101628_real_A.png'
p384
aS'101628_fake_B.png'
p385
asS'101250'
p386
(lp387
S'101250_real_A.png'
p388
aS'101250_fake_B.png'
p389
asS'101578'
p390
(lp391
S'101578_real_A.png'
p392
aS'101578_fake_B.png'
p393
asS'101155'
p394
(lp395
S'101155_real_A.png'
p396
aS'101155_fake_B.png'
p397
asS'101457'
p398
(lp399
S'101457_real_A.png'
p400
aS'101457_fake_B.png'
p401
asS'101153'
p402
(lp403
S'101153_real_A.png'
p404
aS'101153_fake_B.png'
p405
asS'100650'
p406
(lp407
S'100650_real_A.png'
p408
aS'100650_fake_B.png'
p409
asS'100014'
p410
(lp411
S'100014_real_A.png'
p412
aS'100014_fake_B.png'
p413
asS'100741'
p414
(lp415
S'100741_real_A.png'
p416
aS'100741_fake_B.png'
p417
asS'102199'
p418
(lp419
S'102199_real_A.png'
p420
aS'102199_fake_B.png'
p421
asS'101549'
p422
(lp423
S'101549_real_A.png'
p424
aS'101549_fake_B.png'
p425
asS'100364'
p426
(lp427
S'100364_real_A.png'
p428
aS'100364_fake_B.png'
p429
asS'101781'
p430
(lp431
S'101781_real_A.png'
p432
aS'101781_fake_B.png'
p433
asS'100659'
p434
(lp435
S'100659_real_A.png'
p436
aS'100659_fake_B.png'
p437
asS'100304'
p438
(lp439
S'100304_real_A.png'
p440
aS'100304_fake_B.png'
p441
asS'101544'
p442
(lp443
S'101544_real_A.png'
p444
aS'101544_fake_B.png'
p445
asS'102454'
p446
(lp447
S'102454_real_A.png'
p448
aS'102454_fake_B.png'
p449
asS'102190'
p450
(lp451
S'102190_real_A.png'
p452
aS'102190_fake_B.png'
p453
asS'101541'
p454
(lp455
S'101541_real_A.png'
p456
aS'101541_fake_B.png'
p457
asS'100178'
p458
(lp459
S'100178_real_A.png'
p460
aS'100178_fake_B.png'
p461
asS'102339'
p462
(lp463
S'102339_real_A.png'
p464
aS'102339_fake_B.png'
p465
asS'100059'
p466
(lp467
S'100059_real_A.png'
p468
aS'100059_fake_B.png'
p469
asS'100818'
p470
(lp471
S'100818_real_A.png'
p472
aS'100818_fake_B.png'
p473
asS'101944'
p474
(lp475
S'101944_real_A.png'
p476
aS'101944_fake_B.png'
p477
asS'102137'
p478
(lp479
S'102137_real_A.png'
p480
aS'102137_fake_B.png'
p481
asS'102136'
p482
(lp483
S'102136_real_A.png'
p484
aS'102136_fake_B.png'
p485
asS'101948'
p486
(lp487
S'101948_real_A.png'
p488
aS'101948_fake_B.png'
p489
asS'101820'
p490
(lp491
S'101820_real_A.png'
p492
aS'101820_fake_B.png'
p493
asS'100426'
p494
(lp495
S'100426_real_A.png'
p496
aS'100426_fake_B.png'
p497
asS'100891'
p498
(lp499
S'100891_real_A.png'
p500
aS'100891_fake_B.png'
p501
asS'101734'
p502
(lp503
S'101734_real_A.png'
p504
aS'101734_fake_B.png'
p505
asS'100539'
p506
(lp507
S'100539_real_A.png'
p508
aS'100539_fake_B.png'
p509
asS'100953'
p510
(lp511
S'100953_real_A.png'
p512
aS'100953_fake_B.png'
p513
asS'100202'
p514
(lp515
S'100202_real_A.png'
p516
aS'100202_fake_B.png'
p517
asS'101732'
p518
(lp519
S'101732_real_A.png'
p520
aS'101732_fake_B.png'
p521
asS'101733'
p522
(lp523
S'101733_real_A.png'
p524
aS'101733_fake_B.png'
p525
asS'101353'
p526
(lp527
S'101353_real_A.png'
p528
aS'101353_fake_B.png'
p529
asS'101005'
p530
(lp531
S'101005_real_A.png'
p532
aS'101005_fake_B.png'
p533
asS'101226'
p534
(lp535
S'101226_real_A.png'
p536
aS'101226_fake_B.png'
p537
asS'101435'
p538
(lp539
S'101435_real_A.png'
p540
aS'101435_fake_B.png'
p541
asS'101434'
p542
(lp543
S'101434_real_A.png'
p544
aS'101434_fake_B.png'
p545
asS'102524'
p546
(lp547
S'102524_real_A.png'
p548
aS'102524_fake_B.png'
p549
asS'100084'
p550
(lp551
S'100084_real_A.png'
p552
aS'100084_fake_B.png'
p553
asS'100087'
p554
(lp555
S'100087_real_A.png'
p556
aS'100087_fake_B.png'
p557
asS'100081'
p558
(lp559
S'100081_real_A.png'
p560
aS'100081_fake_B.png'
p561
asS'102521'
p562
(lp563
S'102521_real_A.png'
p564
aS'102521_fake_B.png'
p565
asS'101632'
p566
(lp567
S'101632_real_A.png'
p568
aS'101632_fake_B.png'
p569
asS'101029'
p570
(lp571
S'101029_real_A.png'
p572
aS'101029_fake_B.png'
p573
asS'101123'
p574
(lp575
S'101123_real_A.png'
p576
aS'101123_fake_B.png'
p577
asS'100142'
p578
(lp579
S'100142_real_A.png'
p580
aS'100142_fake_B.png'
p581
asS'100647'
p582
(lp583
S'100647_real_A.png'
p584
aS'100647_fake_B.png'
p585
asS'100861'
p586
(lp587
S'100861_real_A.png'
p588
aS'100861_fake_B.png'
p589
asS'100749'
p590
(lp591
S'100749_real_A.png'
p592
aS'100749_fake_B.png'
p593
asS'100641'
p594
(lp595
S'100641_real_A.png'
p596
aS'100641_fake_B.png'
p597
asS'101027'
p598
(lp599
S'101027_real_A.png'
p600
aS'101027_fake_B.png'
p601
asS'101179'
p602
(lp603
S'101179_real_A.png'
p604
aS'101179_fake_B.png'
p605
asS'100808'
p606
(lp607
S'100808_real_A.png'
p608
aS'100808_fake_B.png'
p609
asS'100805'
p610
(lp611
S'100805_real_A.png'
p612
aS'100805_fake_B.png'
p613
asS'100078'
p614
(lp615
S'100078_real_A.png'
p616
aS'100078_fake_B.png'
p617
asS'102147'
p618
(lp619
S'102147_real_A.png'
p620
aS'102147_fake_B.png'
p621
asS'21440'
p622
(lp623
S'frame21440_real_A.png'
p624
aS'frame21440_fake_B.png'
p625
asS'101729'
p626
(lp627
S'101729_real_A.png'
p628
aS'101729_fake_B.png'
p629
asS'101935'
p630
(lp631
S'101935_real_A.png'
p632
aS'101935_fake_B.png'
p633
asS'100507'
p634
(lp635
S'100507_real_A.png'
p636
aS'100507_fake_B.png'
p637
asS'100606'
p638
(lp639
S'100606_real_A.png'
p640
aS'100606_fake_B.png'
p641
asS'100374'
p642
(lp643
S'100374_real_A.png'
p644
aS'100374_fake_B.png'
p645
asS'101727'
p646
(lp647
S'101727_real_A.png'
p648
aS'101727_fake_B.png'
p649
asS'101832'
p650
(lp651
S'101832_real_A.png'
p652
aS'101832_fake_B.png'
p653
asS'101938'
p654
(lp655
S'101938_real_A.png'
p656
aS'101938_fake_B.png'
p657
asS'101139'
p658
(lp659
S'101139_real_A.png'
p660
aS'101139_fake_B.png'
p661
asS'101472'
p662
(lp663
S'101472_real_A.png'
p664
aS'101472_fake_B.png'
p665
asS'100422'
p666
(lp667
S'100422_real_A.png'
p668
aS'100422_fake_B.png'
p669
asS'100126'
p670
(lp671
S'100126_real_A.png'
p672
aS'100126_fake_B.png'
p673
asS'100734'
p674
(lp675
S'100734_real_A.png'
p676
aS'100734_fake_B.png'
p677
asS'100240'
p678
(lp679
S'100240_real_A.png'
p680
aS'100240_fake_B.png'
p681
asS'101604'
p682
(lp683
S'101604_real_A.png'
p684
aS'101604_fake_B.png'
p685
asS'101605'
p686
(lp687
S'101605_real_A.png'
p688
aS'101605_fake_B.png'
p689
asS'102535'
p690
(lp691
S'102535_real_A.png'
p692
aS'102535_fake_B.png'
p693
asS'101607'
p694
(lp695
S'101607_real_A.png'
p696
aS'101607_fake_B.png'
p697
asS'101528'
p698
(lp699
S'101528_real_A.png'
p700
aS'101528_fake_B.png'
p701
asS'100036'
p702
(lp703
S'100036_real_A.png'
p704
aS'100036_fake_B.png'
p705
asS'101551'
p706
(lp707
S'101551_real_A.png'
p708
aS'101551_fake_B.png'
p709
asS'101137'
p710
(lp711
S'101137_real_A.png'
p712
aS'101137_fake_B.png'
p713
asS'102232'
p714
(lp715
S'102232_real_A.png'
p716
aS'102232_fake_B.png'
p717
asS'100899'
p718
(lp719
S'100899_real_A.png'
p720
aS'100899_fake_B.png'
p721
asS'102237'
p722
(lp723
S'102237_real_A.png'
p724
aS'102237_fake_B.png'
p725
asS'101190'
p726
(lp727
S'101190_real_A.png'
p728
aS'101190_fake_B.png'
p729
asS'100351'
p730
(lp731
S'100351_real_A.png'
p732
aS'100351_fake_B.png'
p733
asS'101194'
p734
(lp735
S'101194_real_A.png'
p736
aS'101194_fake_B.png'
p737
asS'100168'
p738
(lp739
S'100168_real_A.png'
p740
aS'100168_fake_B.png'
p741
asS'101198'
p742
(lp743
S'101198_real_A.png'
p744
aS'101198_fake_B.png'
p745
asS'101441'
p746
(lp747
S'101441_real_A.png'
p748
aS'101441_fake_B.png'
p749
asS'102559'
p750
(lp751
S'102559_real_A.png'
p752
aS'102559_fake_B.png'
p753
asS'100835'
p754
(lp755
S'100835_real_A.png'
p756
aS'100835_fake_B.png'
p757
asS'100070'
p758
(lp759
S'100070_real_A.png'
p760
aS'100070_fake_B.png'
p761
asS'102242'
p762
(lp763
S'102242_real_A.png'
p764
aS'102242_fake_B.png'
p765
asS'101598'
p766
(lp767
S'101598_real_A.png'
p768
aS'101598_fake_B.png'
p769
asS'10200'
p770
(lp771
S'frame10200_real_A.png'
p772
aS'frame10200_fake_B.png'
p773
asS'101594'
p774
(lp775
S'101594_real_A.png'
p776
aS'101594_fake_B.png'
p777
asS'101595'
p778
(lp779
S'101595_real_A.png'
p780
aS'101595_fake_B.png'
p781
asS'100935'
p782
(lp783
S'100935_real_A.png'
p784
aS'100935_fake_B.png'
p785
asS'101591'
p786
(lp787
S'101591_real_A.png'
p788
aS'101591_fake_B.png'
p789
asS'101592'
p790
(lp791
S'101592_real_A.png'
p792
aS'101592_fake_B.png'
p793
asS'101618'
p794
(lp795
S'101618_real_A.png'
p796
aS'101618_fake_B.png'
p797
asS'100130'
p798
(lp799
S'100130_real_A.png'
p800
aS'100130_fake_B.png'
p801
asS'100133'
p802
(lp803
S'100133_real_A.png'
p804
aS'100133_fake_B.png'
p805
asS'100333'
p806
(lp807
S'100333_real_A.png'
p808
aS'100333_fake_B.png'
p809
asS'101511'
p810
(lp811
S'101511_real_A.png'
p812
aS'101511_fake_B.png'
p813
asS'102220'
p814
(lp815
S'102220_real_A.png'
p816
aS'102220_fake_B.png'
p817
asS'102384'
p818
(lp819
S'102384_real_A.png'
p820
aS'102384_fake_B.png'
p821
asS'100138'
p822
(lp823
S'100138_real_A.png'
p824
aS'100138_fake_B.png'
p825
asS'101519'
p826
(lp827
S'101519_real_A.png'
p828
aS'101519_fake_B.png'
p829
asS'102229'
p830
(lp831
S'102229_real_A.png'
p832
aS'102229_fake_B.png'
p833
asS'102228'
p834
(lp835
S'102228_real_A.png'
p836
aS'102228_fake_B.png'
p837
asS'100629'
p838
(lp839
S'100629_real_A.png'
p840
aS'100629_fake_B.png'
p841
asS'100628'
p842
(lp843
S'100628_real_A.png'
p844
aS'100628_fake_B.png'
p845
asS'101358'
p846
(lp847
S'101358_real_A.png'
p848
aS'101358_fake_B.png'
p849
asS'101129'
p850
(lp851
S'101129_real_A.png'
p852
aS'101129_fake_B.png'
p853
asS'101699'
p854
(lp855
S'101699_real_A.png'
p856
aS'101699_fake_B.png'
p857
asS'102549'
p858
(lp859
S'102549_real_A.png'
p860
aS'102549_fake_B.png'
p861
asS'102547'
p862
(lp863
S'102547_real_A.png'
p864
aS'102547_fake_B.png'
p865
asS'100025'
p866
(lp867
S'100025_real_A.png'
p868
aS'100025_fake_B.png'
p869
asS'101121'
p870
(lp871
S'101121_real_A.png'
p872
aS'101121_fake_B.png'
p873
asS'100107'
p874
(lp875
S'100107_real_A.png'
p876
aS'100107_fake_B.png'
p877
asS'100627'
p878
(lp879
S'100627_real_A.png'
p880
aS'100627_fake_B.png'
p881
asS'101355'
p882
(lp883
S'101355_real_A.png'
p884
aS'101355_fake_B.png'
p885
asS'100463'
p886
(lp887
S'100463_real_A.png'
p888
aS'100463_fake_B.png'
p889
asS'100905'
p890
(lp891
S'100905_real_A.png'
p892
aS'100905_fake_B.png'
p893
asS'101189'
p894
(lp895
S'101189_real_A.png'
p896
aS'101189_fake_B.png'
p897
asS'102361'
p898
(lp899
S'102361_real_A.png'
p900
aS'102361_fake_B.png'
p901
asS'100441'
p902
(lp903
S'100441_real_A.png'
p904
aS'100441_fake_B.png'
p905
asS'100021'
p906
(lp907
S'100021_real_A.png'
p908
aS'100021_fake_B.png'
p909
asS'101662'
p910
(lp911
S'101662_real_A.png'
p912
aS'101662_fake_B.png'
p913
asS'101582'
p914
(lp915
S'101582_real_A.png'
p916
aS'101582_fake_B.png'
p917
asS'100696'
p918
(lp919
S'100696_real_A.png'
p920
aS'100696_fake_B.png'
p921
asS'101063'
p922
(lp923
S'101063_real_A.png'
p924
aS'101063_fake_B.png'
p925
asS'101854'
p926
(lp927
S'101854_real_A.png'
p928
aS'101854_fake_B.png'
p929
asS'100693'
p930
(lp931
S'100693_real_A.png'
p932
aS'100693_fake_B.png'
p933
asS'101503'
p934
(lp935
S'101503_real_A.png'
p936
aS'101503_fake_B.png'
p937
asS'100218'
p938
(lp939
S'100218_real_A.png'
p940
aS'100218_fake_B.png'
p941
asS'102398'
p942
(lp943
S'102398_real_A.png'
p944
aS'102398_fake_B.png'
p945
asS'100108'
p946
(lp947
S'100108_real_A.png'
p948
aS'100108_fake_B.png'
p949
asS'100109'
p950
(lp951
S'100109_real_A.png'
p952
aS'100109_fake_B.png'
p953
asS'101057'
p954
(lp955
S'101057_real_A.png'
p956
aS'101057_fake_B.png'
p957
asS'100826'
p958
(lp959
S'100826_real_A.png'
p960
aS'100826_fake_B.png'
p961
asS'100104'
p962
(lp963
S'100104_real_A.png'
p964
aS'100104_fake_B.png'
p965
asS'102258'
p966
(lp967
S'102258_real_A.png'
p968
aS'102258_fake_B.png'
p969
asS'101508'
p970
(lp971
S'101508_real_A.png'
p972
aS'101508_fake_B.png'
p973
asS'100618'
p974
(lp975
S'100618_real_A.png'
p976
aS'100618_fake_B.png'
p977
asS'101740'
p978
(lp979
S'101740_real_A.png'
p980
aS'101740_fake_B.png'
p981
asS'102412'
p982
(lp983
S'102412_real_A.png'
p984
aS'102412_fake_B.png'
p985
asS'101586'
p986
(lp987
S'101586_real_A.png'
p988
aS'101586_fake_B.png'
p989
asS'102591'
p990
(lp991
S'102591_real_A.png'
p992
aS'102591_fake_B.png'
p993
asS'101575'
p994
(lp995
S'101575_real_A.png'
p996
aS'101575_fake_B.png'
p997
asS'101726'
p998
(lp999
S'101726_real_A.png'
p1000
aS'101726_fake_B.png'
p1001
asS'101465'
p1002
(lp1003
S'101465_real_A.png'
p1004
aS'101465_fake_B.png'
p1005
asS'100753'
p1006
(lp1007
S'100753_real_A.png'
p1008
aS'100753_fake_B.png'
p1009
asS'100598'
p1010
(lp1011
S'100598_real_A.png'
p1012
aS'100598_fake_B.png'
p1013
asS'102091'
p1014
(lp1015
S'102091_real_A.png'
p1016
aS'102091_fake_B.png'
p1017
asS'100227'
p1018
(lp1019
S'100227_real_A.png'
p1020
aS'100227_fake_B.png'
p1021
asS'100719'
p1022
(lp1023
S'100719_real_A.png'
p1024
aS'100719_fake_B.png'
p1025
asS'102094'
p1026
(lp1027
S'102094_real_A.png'
p1028
aS'102094_fake_B.png'
p1029
asS'102499'
p1030
(lp1031
S'102499_real_A.png'
p1032
aS'102499_fake_B.png'
p1033
asS'101346'
p1034
(lp1035
S'101346_real_A.png'
p1036
aS'101346_fake_B.png'
p1037
asS'100913'
p1038
(lp1039
S'100913_real_A.png'
p1040
aS'100913_fake_B.png'
p1041
asS'100917'
p1042
(lp1043
S'100917_real_A.png'
p1044
aS'100917_fake_B.png'
p1045
asS'100821'
p1046
(lp1047
S'100821_real_A.png'
p1048
aS'100821_fake_B.png'
p1049
asS'100919'
p1050
(lp1051
S'100919_real_A.png'
p1052
aS'100919_fake_B.png'
p1053
asS'100820'
p1054
(lp1055
S'100820_real_A.png'
p1056
aS'100820_fake_B.png'
p1057
asS'102054'
p1058
(lp1059
S'102054_real_A.png'
p1060
aS'102054_fake_B.png'
p1061
asS'101670'
p1062
(lp1063
S'101670_real_A.png'
p1064
aS'101670_fake_B.png'
p1065
asS'101673'
p1066
(lp1067
S'101673_real_A.png'
p1068
aS'101673_fake_B.png'
p1069
asS'101856'
p1070
(lp1071
S'101856_real_A.png'
p1072
aS'101856_fake_B.png'
p1073
asS'101674'
p1074
(lp1075
S'101674_real_A.png'
p1076
aS'101674_fake_B.png'
p1077
asS'100683'
p1078
(lp1079
S'100683_real_A.png'
p1080
aS'100683_fake_B.png'
p1081
asS'100687'
p1082
(lp1083
S'100687_real_A.png'
p1084
aS'100687_fake_B.png'
p1085
asS'100317'
p1086
(lp1087
S'100317_real_A.png'
p1088
aS'100317_fake_B.png'
p1089
asS'101778'
p1090
(lp1091
S'101778_real_A.png'
p1092
aS'101778_fake_B.png'
p1093
asS'101377'
p1094
(lp1095
S'101377_real_A.png'
p1096
aS'101377_fake_B.png'
p1097
asS'100607'
p1098
(lp1099
S'100607_real_A.png'
p1100
aS'100607_fake_B.png'
p1101
asS'100612'
p1102
(lp1103
S'100612_real_A.png'
p1104
aS'100612_fake_B.png'
p1105
asS'100112'
p1106
(lp1107
S'100112_real_A.png'
p1108
aS'100112_fake_B.png'
p1109
asS'100111'
p1110
(lp1111
S'100111_real_A.png'
p1112
aS'100111_fake_B.png'
p1113
asS'100751'
p1114
(lp1115
S'100751_real_A.png'
p1116
aS'100751_fake_B.png'
p1117
asS'100117'
p1118
(lp1119
S'100117_real_A.png'
p1120
aS'100117_fake_B.png'
p1121
asS'101746'
p1122
(lp1123
S'101746_real_A.png'
p1124
aS'101746_fake_B.png'
p1125
asS'102169'
p1126
(lp1127
S'102169_real_A.png'
p1128
aS'102169_fake_B.png'
p1129
asS'102483'
p1130
(lp1131
S'102483_real_A.png'
p1132
aS'102483_fake_B.png'
p1133
asS'100761'
p1134
(lp1135
S'100761_real_A.png'
p1136
aS'100761_fake_B.png'
p1137
asS'102480'
p1138
(lp1139
S'102480_real_A.png'
p1140
aS'102480_fake_B.png'
p1141
asS'102161'
p1142
(lp1143
S'102161_real_A.png'
p1144
aS'102161_fake_B.png'
p1145
asS'101570'
p1146
(lp1147
S'101570_real_A.png'
p1148
aS'101570_fake_B.png'
p1149
asS'101478'
p1150
(lp1151
S'101478_real_A.png'
p1152
aS'101478_fake_B.png'
p1153
asS'101477'
p1154
(lp1155
S'101477_real_A.png'
p1156
aS'101477_fake_B.png'
p1157
asS'101177'
p1158
(lp1159
S'101177_real_A.png'
p1160
aS'101177_fake_B.png'
p1161
asS'101475'
p1162
(lp1163
S'101475_real_A.png'
p1164
aS'101475_fake_B.png'
p1165
asS'100180'
p1166
(lp1167
S'100180_real_A.png'
p1168
aS'100180_fake_B.png'
p1169
asS'100981'
p1170
(lp1171
S'100981_real_A.png'
p1172
aS'100981_fake_B.png'
p1173
asS'100829'
p1174
(lp1175
S'100829_real_A.png'
p1176
aS'100829_fake_B.png'
p1177
asS'100747'
p1178
(lp1179
S'100747_real_A.png'
p1180
aS'100747_fake_B.png'
p1181
as.